EXPORTS 
	??_R0?AV?$_Func_base@V?$vector@NV?$allocator@N@std@@@std@@AEBV12@@std@@@8 	 DATA
	??_R0?AV?$_Iosb@H@std@@@8 	 DATA
	??_R0?AV?$basic_filebuf@DU?$char_traits@D@std@@@std@@@8 	 DATA
	??_R0?AV?$basic_ios@DU?$char_traits@D@std@@@std@@@8 	 DATA
	??_R0?AV?$basic_ofstream@DU?$char_traits@D@std@@@std@@@8 	 DATA
	??_R0?AV?$basic_ostream@DU?$char_traits@D@std@@@std@@@8 	 DATA
	??_R0?AV?$basic_streambuf@DU?$char_traits@D@std@@@std@@@8 	 DATA
	??_R0?AVbad_alloc@std@@@8 	 DATA
	??_R0?AVbad_array_new_length@std@@@8 	 DATA
	??_R0?AVbad_cast@std@@@8 	 DATA
	??_R0?AVexception@std@@@8 	 DATA
	??_R0?AVinvalid_argument@std@@@8 	 DATA
	??_R0?AVios_base@std@@@8 	 DATA
	??_R0?AVlogic_error@std@@@8 	 DATA
	?_Psave@?$_Facetptr@V?$codecvt@DDU_Mbstatet@@@std@@@std@@2PEBVfacet@locale@2@EB 	 DATA
	?_Stinit@?1??_Init@?$basic_filebuf@DU?$char_traits@D@std@@@std@@IEAAXPEAU_iobuf@@W4_Initfl@23@@Z@4U_Mbstatet@@A 	 DATA
	_Avx2WmemEnabledWeakValue 	 DATA
	??$?0$$V@?$_Compressed_pair@V?$allocator@D@std@@V?$_String_val@U?$_Simple_types@D@std@@@2@$00@std@@QEAA@U_Zero_then_variadic_args_t@1@@Z
	??$?0$$V@?$_Compressed_pair@V?$allocator@N@std@@V?$_Vector_val@U?$_Simple_types@N@std@@@2@$00@std@@QEAA@U_Zero_then_variadic_args_t@1@@Z
	??$?0$$V@?$_Compressed_pair@V?$allocator@U?$_Tree_node@U?$pair@QEAXPEAUSimulationResults@combat_model@@@std@@PEAX@std@@@std@@V?$_Tree_val@U?$_Tree_simple_types@U?$pair@QEAXPEAUSimulationResults@combat_model@@@std@@@std@@@2@$00@std@@QEAA@U_Zero_then_variadic_args_t@1@@Z
	??$?0$$V@?$_Compressed_pair@V?$allocator@UUnitType@combat_model@@@std@@V?$_Vector_val@U?$_Simple_types@UUnitType@combat_model@@@std@@@2@$00@std@@QEAA@U_Zero_then_variadic_args_t@1@@Z
	??$?0$$V@?$_Compressed_pair@V?$allocator@V?$basic_string@DU?$char_traits@D@std@@V?$allocator@D@2@@std@@@std@@V?$_Vector_val@U?$_Simple_types@V?$basic_string@DU?$char_traits@D@std@@V?$allocator@D@2@@std@@@std@@@2@$00@std@@QEAA@U_Zero_then_variadic_args_t@1@@Z
	??$?0$$V@?$_Compressed_pair@V?$allocator@V?$vector@NV?$allocator@N@std@@@std@@@std@@V?$_Vector_val@U?$_Simple_types@V?$vector@NV?$allocator@N@std@@@std@@@std@@@2@$00@std@@QEAA@U_Zero_then_variadic_args_t@1@@Z
	??$?0AEAPEAV_Facet_base@std@@@?$_Compressed_pair@U?$default_delete@V_Facet_base@std@@@std@@PEAV_Facet_base@2@$00@std@@QEAA@U_Zero_then_variadic_args_t@1@AEAPEAV_Facet_base@1@@Z
	??$?0AEBQEAU?$_Tree_node@U?$pair@QEAXPEAUSimulationResults@combat_model@@@std@@PEAX@std@@_N$0A@@?$pair@PEAU?$_Tree_node@U?$pair@QEAXPEAUSimulationResults@combat_model@@@std@@PEAX@std@@_N@std@@QEAA@AEBQEAU?$_Tree_node@U?$pair@QEAXPEAUSimulationResults@combat_model@@@std@@PEAX@1@$$QEA_N@Z
	??$?0AEBQEAX$$Z$$V@?$pair@QEAXPEAUSimulationResults@combat_model@@@std@@QEAA@Upiecewise_construct_t@1@V?$tuple@AEBQEAX@1@V?$tuple@$$V@1@@Z
	??$?0AEBQEAX$0A@@?$tuple@AEBQEAX@std@@QEAA@AEBQEAX@Z
	??$?0AEBQEAX@?$_Tuple_val@AEBQEAX@std@@QEAA@AEBQEAX@Z
	??$?0AEBU?$less@PEAX@std@@U_Zero_then_variadic_args_t@1@@?$_Compressed_pair@U?$less@PEAX@std@@V?$_Compressed_pair@V?$allocator@U?$_Tree_node@U?$pair@QEAXPEAUSimulationResults@combat_model@@@std@@PEAX@std@@@std@@V?$_Tree_val@U?$_Tree_simple_types@U?$pair@QEAXPEAUSimulationResults@combat_model@@@std@@@std@@@2@$00@2@$00@std@@QEAA@U_One_then_variadic_args_t@1@AEBU?$less@PEAX@1@$$QEAU_Zero_then_variadic_args_t@1@@Z
	??$?0AEBUpiecewise_construct_t@std@@V?$tuple@AEBQEAX@1@V?$tuple@$$V@1@@?$_Tree_temp_node@V?$allocator@U?$_Tree_node@U?$pair@QEAXPEAUSimulationResults@combat_model@@@std@@PEAX@std@@@std@@@std@@QEAA@AEAV?$allocator@U?$_Tree_node@U?$pair@QEAXPEAUSimulationResults@combat_model@@@std@@PEAX@std@@@1@PEAU?$_Tree_node@U?$pair@QEAXPEAUSimulationResults@combat_model@@@std@@PEAX@1@AEBUpiecewise_construct_t@1@$$QEAV?$tuple@AEBQEAX@1@$$QEAV?$tuple@$$V@1@@Z
	??$?0AEBV?$allocator@N@std@@$$V@?$_Compressed_pair@V?$allocator@N@std@@V?$_Vector_val@U?$_Simple_types@N@std@@@2@$00@std@@QEAA@U_One_then_variadic_args_t@1@AEBV?$allocator@N@1@@Z
	??$?0N$0A@@?$duration@NU?$ratio@$00$0DOI@@std@@@chrono@std@@QEAA@AEBN@Z
	??$?0PEAU?$_Tree_node@U?$pair@QEAXPEAUSimulationResults@combat_model@@@std@@PEAX@std@@_N$0A@@?$pair@PEAU?$_Tree_node@U?$pair@QEAXPEAUSimulationResults@combat_model@@@std@@PEAX@std@@_N@std@@QEAA@$$QEAPEAU?$_Tree_node@U?$pair@QEAXPEAUSimulationResults@combat_model@@@std@@PEAX@1@$$QEA_N@Z
	??$?0U?$default_delete@V_Facet_base@std@@@std@@$0A@@?$unique_ptr@V_Facet_base@std@@U?$default_delete@V_Facet_base@std@@@2@@std@@QEAA@PEAV_Facet_base@1@@Z
	??$?0U_Exact_args_t@std@@$0A@@?$tuple@$$V@std@@QEAA@U_Exact_args_t@1@@Z
	??$?0U_Exact_args_t@std@@AEBQEAX$$V$0A@@?$tuple@AEBQEAX@std@@QEAA@U_Exact_args_t@1@AEBQEAX@Z
	??$?0V?$allocator@D@std@@$$V@?$_Compressed_pair@V?$allocator@D@std@@V?$_String_val@U?$_Simple_types@D@std@@@2@$00@std@@QEAA@U_One_then_variadic_args_t@1@$$QEAV?$allocator@D@1@@Z
	??$?0V?$allocator@N@std@@$$V@?$_Compressed_pair@V?$allocator@N@std@@V?$_Vector_val@U?$_Simple_types@N@std@@@2@$00@std@@QEAA@U_One_then_variadic_args_t@1@$$QEAV?$allocator@N@1@@Z
	??$?0V?$allocator@N@std@@$0A@@?$vector@NV?$allocator@N@std@@@std@@QEAA@_KAEBNAEBV?$allocator@N@1@@Z
	??$?0V?$allocator@N@std@@PEANPEANPEAN@?$_Compressed_pair@V?$allocator@N@std@@V?$_Vector_val@U?$_Simple_types@N@std@@@2@$00@std@@QEAA@U_One_then_variadic_args_t@1@$$QEAV?$allocator@N@1@$$QEAPEAN22@Z
	??$?0V?$allocator@UUnitType@combat_model@@@std@@$$V@?$_Compressed_pair@V?$allocator@UUnitType@combat_model@@@std@@V?$_Vector_val@U?$_Simple_types@UUnitType@combat_model@@@std@@@2@$00@std@@QEAA@U_One_then_variadic_args_t@1@$$QEAV?$allocator@UUnitType@combat_model@@@1@@Z
	??$?0V?$allocator@V?$vector@NV?$allocator@N@std@@@std@@@std@@$$V@?$_Compressed_pair@V?$allocator@V?$vector@NV?$allocator@N@std@@@std@@@std@@V?$_Vector_val@U?$_Simple_types@V?$vector@NV?$allocator@N@std@@@std@@@std@@@2@$00@std@@QEAA@U_One_then_variadic_args_t@1@$$QEAV?$allocator@V?$vector@NV?$allocator@N@std@@@std@@@1@@Z
	??$?0V?$allocator@V?$vector@NV?$allocator@N@std@@@std@@@std@@PEAV?$vector@NV?$allocator@N@std@@@1@PEAV21@PEAV21@@?$_Compressed_pair@V?$allocator@V?$vector@NV?$allocator@N@std@@@std@@@std@@V?$_Vector_val@U?$_Simple_types@V?$vector@NV?$allocator@N@std@@@std@@@std@@@2@$00@std@@QEAA@U_One_then_variadic_args_t@1@$$QEAV?$allocator@V?$vector@NV?$allocator@N@std@@@std@@@1@$$QEAPEAV?$vector@NV?$allocator@N@std@@@1@22@Z
	??$?0V?$tuple@AEBQEAX@std@@V?$tuple@$$V@1@$0A@$$Z$S@?$pair@QEAXPEAUSimulationResults@combat_model@@@std@@AEAA@AEAV?$tuple@AEBQEAX@1@AEAV?$tuple@$$V@1@U?$integer_sequence@_K$0A@@1@U?$integer_sequence@_K$S@1@@Z
	??$?0_J$0A@@?$duration@_JU?$ratio@$00$0DLJKMKAA@@std@@@chrono@std@@QEAA@AEB_J@Z
	??$?0_JU?$ratio@$00$0DLJKMKAA@@std@@$0A@@?$duration@NU?$ratio@$00$0DOI@@std@@@chrono@std@@QEAA@AEBV?$duration@_JU?$ratio@$00$0DLJKMKAA@@std@@@12@@Z
	??$?6DU?$char_traits@D@std@@V?$allocator@D@1@@std@@YAAEAV?$basic_ostream@DU?$char_traits@D@std@@@0@AEAV10@AEBV?$basic_string@DU?$char_traits@D@std@@V?$allocator@D@2@@0@@Z
	??$?6U?$char_traits@D@std@@@std@@YAAEAV?$basic_ostream@DU?$char_traits@D@std@@@0@AEAV10@PEBD@Z
	??$?GUsteady_clock@chrono@std@@V?$duration@_JU?$ratio@$00$0DLJKMKAA@@std@@@12@V312@@chrono@std@@YA?AV?$duration@_JU?$ratio@$00$0DLJKMKAA@@std@@@01@AEBV?$time_point@Usteady_clock@chrono@std@@V?$duration@_JU?$ratio@$00$0DLJKMKAA@@std@@@23@@01@0@Z
	??$?G_JU?$ratio@$00$0DLJKMKAA@@std@@_JU01@@chrono@std@@YA?AV?$duration@_JU?$ratio@$00$0DLJKMKAA@@std@@@01@AEBV201@0@Z
	??$?RAEANAEAN@?$plus@X@std@@QEBANAEAN0@Z
	??$_Adl_verify_range@PEANPEAN@std@@YAXAEBQEAN0@Z
	??$_Adl_verify_range@PEAV?$vector@NV?$allocator@N@std@@@std@@PEAV12@@std@@YAXAEBQEAV?$vector@NV?$allocator@N@std@@@0@0@Z
	??$_Adl_verify_range@V?$_Vector_iterator@V?$_Vector_val@U?$_Simple_types@N@std@@@std@@@std@@V12@@std@@YAXAEBV?$_Vector_iterator@V?$_Vector_val@U?$_Simple_types@N@std@@@std@@@0@0@Z
	??$_Allocate@$0BA@U_Default_allocate_traits@std@@@std@@YAPEAX_K@Z
	??$_Allocate_at_least_helper@V?$allocator@D@std@@@std@@YAPEADAEAV?$allocator@D@0@AEA_K@Z
	??$_Allocate_at_least_helper@V?$allocator@N@std@@@std@@YAPEANAEAV?$allocator@N@0@AEA_K@Z
	??$_Allocate_at_least_helper@V?$allocator@UUnitType@combat_model@@@std@@@std@@YAPEAUUnitType@combat_model@@AEAV?$allocator@UUnitType@combat_model@@@0@AEA_K@Z
	??$_Allocate_at_least_helper@V?$allocator@V?$basic_string@DU?$char_traits@D@std@@V?$allocator@D@2@@std@@@std@@@std@@YAPEAV?$basic_string@DU?$char_traits@D@std@@V?$allocator@D@2@@0@AEAV?$allocator@V?$basic_string@DU?$char_traits@D@std@@V?$allocator@D@2@@std@@@0@AEA_K@Z
	??$_Allocate_at_least_helper@V?$allocator@V?$vector@NV?$allocator@N@std@@@std@@@std@@@std@@YAPEAV?$vector@NV?$allocator@N@std@@@0@AEAV?$allocator@V?$vector@NV?$allocator@N@std@@@std@@@0@AEA_K@Z
	??$_Allocate_for_capacity@$0A@@?$basic_string@DU?$char_traits@D@std@@V?$allocator@D@2@@std@@CAPEADAEAV?$allocator@D@1@AEA_K@Z
	??$_Allocate_manually_vector_aligned@U_Default_allocate_traits@std@@@std@@YAPEAX_K@Z
	??$_Assign_counted_range@PEAN@?$vector@NV?$allocator@N@std@@@std@@AEAAXPEAN_K@Z
	??$_Buyheadnode@V?$allocator@U?$_Tree_node@U?$pair@QEAXPEAUSimulationResults@combat_model@@@std@@PEAX@std@@@std@@@?$_Tree_node@U?$pair@QEAXPEAUSimulationResults@combat_model@@@std@@PEAX@std@@SAPEAU01@AEAV?$allocator@U?$_Tree_node@U?$pair@QEAXPEAUSimulationResults@combat_model@@@std@@PEAX@std@@@1@@Z
	??$_Construct@$00PEBD@?$basic_string@DU?$char_traits@D@std@@V?$allocator@D@2@@std@@AEAAXQEBD_K@Z
	??$_Construct@$01PEBD@?$basic_string@DU?$char_traits@D@std@@V?$allocator@D@2@@std@@AEAAXQEBD_K@Z
	??$_Construct_in_place@PEADAEAPEAD@std@@YAXAEAPEAD0@Z
	??$_Construct_in_place@PEADAEBQEAD@std@@YAXAEAPEADAEBQEAD@Z
	??$_Construct_in_place@PEAU?$_Tree_node@U?$pair@QEAXPEAUSimulationResults@combat_model@@@std@@PEAX@std@@AEAPEAU12@@std@@YAXAEAPEAU?$_Tree_node@U?$pair@QEAXPEAUSimulationResults@combat_model@@@std@@PEAX@0@0@Z
	??$_Construct_in_place@PEAU?$_Tree_node@U?$pair@QEAXPEAUSimulationResults@combat_model@@@std@@PEAX@std@@AEBQEAU12@@std@@YAXAEAPEAU?$_Tree_node@U?$pair@QEAXPEAUSimulationResults@combat_model@@@std@@PEAX@0@AEBQEAU10@@Z
	??$_Construct_in_place@V?$basic_string@DU?$char_traits@D@std@@V?$allocator@D@2@@std@@V12@@std@@YAXAEAV?$basic_string@DU?$char_traits@D@std@@V?$allocator@D@2@@0@$$QEAV10@@Z
	??$_Construct_n@$$V@?$vector@NV?$allocator@N@std@@@std@@AEAAX_K@Z
	??$_Construct_n@AEBN@?$vector@NV?$allocator@N@std@@@std@@AEAAX_KAEBN@Z
	??$_Construct_n@AEBQEANAEBQEAN@?$vector@NV?$allocator@N@std@@@std@@AEAAX_KAEBQEAN1@Z
	??$_Construct_n@AEBQEAUUnitType@combat_model@@AEBQEAU12@@?$vector@UUnitType@combat_model@@V?$allocator@UUnitType@combat_model@@@std@@@std@@AEAAX_KAEBQEAUUnitType@combat_model@@1@Z
	??$_Construct_n@AEBQEAV?$vector@NV?$allocator@N@std@@@std@@AEBQEAV12@@?$vector@V?$vector@NV?$allocator@N@std@@@std@@V?$allocator@V?$vector@NV?$allocator@N@std@@@std@@@2@@std@@AEAAX_KAEBQEAV?$vector@NV?$allocator@N@std@@@1@1@Z
	??$_Convert_size@_K_K@std@@YA_K_K@Z
	??$_Copy_memmove@PEANPEAN@std@@YAPEANPEAN00@Z
	??$_Copy_memmove_n@PEANPEAN@std@@YAPEANPEAN_K0@Z
	??$_Copy_memmove_tail@PEAN@std@@YAPEANQEBDQEAN_K2@Z
	??$_Copy_n_unchecked4@PEAN_KPEAN@std@@YAPEANPEAN_K0@Z
	??$_Deallocate@$07@std@@YAXPEAX_K@Z
	??$_Deallocate@$0BA@@std@@YAXPEAX_K@Z
	??$_Destroy_in_place@PEAD@std@@YAXAEAPEAD@Z
	??$_Destroy_in_place@PEAU?$_Tree_node@U?$pair@QEAXPEAUSimulationResults@combat_model@@@std@@PEAX@std@@@std@@YAXAEAPEAU?$_Tree_node@U?$pair@QEAXPEAUSimulationResults@combat_model@@@std@@PEAX@0@@Z
	??$_Destroy_range@V?$allocator@N@std@@@std@@YAXPEANQEANAEAV?$allocator@N@0@@Z
	??$_Destroy_range@V?$allocator@UUnitType@combat_model@@@std@@@std@@YAXPEAUUnitType@combat_model@@QEAU12@AEAV?$allocator@UUnitType@combat_model@@@0@@Z
	??$_Destroy_range@V?$allocator@V?$basic_string@DU?$char_traits@D@std@@V?$allocator@D@2@@std@@@std@@@std@@YAXPEAV?$basic_string@DU?$char_traits@D@std@@V?$allocator@D@2@@0@QEAV10@AEAV?$allocator@V?$basic_string@DU?$char_traits@D@std@@V?$allocator@D@2@@std@@@0@@Z
	??$_Destroy_range@V?$allocator@V?$vector@NV?$allocator@N@std@@@std@@@std@@@std@@YAXPEAV?$vector@NV?$allocator@N@std@@@0@QEAV10@AEAV?$allocator@V?$vector@NV?$allocator@N@std@@@std@@@0@@Z
	??$_Emplace_back@$$V@?$_Uninitialized_backout_al@V?$allocator@N@std@@@std@@QEAAXXZ
	??$_Emplace_back@$$V@?$_Uninitialized_backout_al@V?$allocator@UUnitType@combat_model@@@std@@@std@@QEAAXXZ
	??$_Emplace_back@AEAN@?$_Uninitialized_backout_al@V?$allocator@N@std@@@std@@QEAAXAEAN@Z
	??$_Emplace_back@AEAUUnitType@combat_model@@@?$_Uninitialized_backout_al@V?$allocator@UUnitType@combat_model@@@std@@@std@@QEAAXAEAUUnitType@combat_model@@@Z
	??$_Emplace_back@AEAV?$vector@NV?$allocator@N@std@@@std@@@?$_Uninitialized_backout_al@V?$allocator@V?$vector@NV?$allocator@N@std@@@std@@@std@@@std@@QEAAXAEAV?$vector@NV?$allocator@N@std@@@1@@Z
	??$_Emplace_back@AEBN@?$_Uninitialized_backout_al@V?$allocator@N@std@@@std@@QEAAXAEBN@Z
	??$_Emplace_back@AEBV?$vector@NV?$allocator@N@std@@@std@@@?$_Uninitialized_backout_al@V?$allocator@V?$vector@NV?$allocator@N@std@@@std@@@std@@@std@@QEAAXAEBV?$vector@NV?$allocator@N@std@@@1@@Z
	??$_Emplace_back@N@?$_Uninitialized_backout_al@V?$allocator@N@std@@@std@@QEAAX$$QEAN@Z
	??$_Emplace_back@UUnitType@combat_model@@@?$_Uninitialized_backout_al@V?$allocator@UUnitType@combat_model@@@std@@@std@@QEAAX$$QEAUUnitType@combat_model@@@Z
	??$_Emplace_back@V?$basic_string@DU?$char_traits@D@std@@V?$allocator@D@2@@std@@@?$_Uninitialized_backout_al@V?$allocator@V?$basic_string@DU?$char_traits@D@std@@V?$allocator@D@2@@std@@@std@@@std@@QEAAX$$QEAV?$basic_string@DU?$char_traits@D@std@@V?$allocator@D@2@@1@@Z
	??$_Emplace_back@V?$vector@NV?$allocator@N@std@@@std@@@?$_Uninitialized_backout_al@V?$allocator@V?$vector@NV?$allocator@N@std@@@std@@@std@@@std@@QEAAX$$QEAV?$vector@NV?$allocator@N@std@@@1@@Z
	??$_Emplace_back_with_unused_capacity@V?$basic_string@DU?$char_traits@D@std@@V?$allocator@D@2@@std@@@?$vector@V?$basic_string@DU?$char_traits@D@std@@V?$allocator@D@2@@std@@V?$allocator@V?$basic_string@DU?$char_traits@D@std@@V?$allocator@D@2@@std@@@2@@std@@AEAAAEAV?$basic_string@DU?$char_traits@D@std@@V?$allocator@D@2@@1@$$QEAV21@@Z
	??$_Emplace_one_at_back@V?$basic_string@DU?$char_traits@D@std@@V?$allocator@D@2@@std@@@?$vector@V?$basic_string@DU?$char_traits@D@std@@V?$allocator@D@2@@std@@V?$allocator@V?$basic_string@DU?$char_traits@D@std@@V?$allocator@D@2@@std@@@2@@std@@AEAAAEAV?$basic_string@DU?$char_traits@D@std@@V?$allocator@D@2@@1@$$QEAV21@@Z
	??$_Emplace_reallocate@V?$basic_string@DU?$char_traits@D@std@@V?$allocator@D@2@@std@@@?$vector@V?$basic_string@DU?$char_traits@D@std@@V?$allocator@D@2@@std@@V?$allocator@V?$basic_string@DU?$char_traits@D@std@@V?$allocator@D@2@@std@@@2@@std@@AEAAPEAV?$basic_string@DU?$char_traits@D@std@@V?$allocator@D@2@@1@QEAV21@$$QEAV21@@Z
	??$_Erase_head@V?$allocator@U?$_Tree_node@U?$pair@QEAXPEAUSimulationResults@combat_model@@@std@@PEAX@std@@@std@@@?$_Tree_val@U?$_Tree_simple_types@U?$pair@QEAXPEAUSimulationResults@combat_model@@@std@@@std@@@std@@QEAAXAEAV?$allocator@U?$_Tree_node@U?$pair@QEAXPEAUSimulationResults@combat_model@@@std@@PEAX@std@@@1@@Z
	??$_Erase_tree@V?$allocator@U?$_Tree_node@U?$pair@QEAXPEAUSimulationResults@combat_model@@@std@@PEAX@std@@@std@@@?$_Tree_val@U?$_Tree_simple_types@U?$pair@QEAXPEAUSimulationResults@combat_model@@@std@@@std@@@std@@QEAAXAEAV?$allocator@U?$_Tree_node@U?$pair@QEAXPEAUSimulationResults@combat_model@@@std@@PEAX@std@@@1@PEAU?$_Tree_node@U?$pair@QEAXPEAUSimulationResults@combat_model@@@std@@PEAX@1@@Z
	??$_Fgetc@D@std@@YA_NAEADPEAU_iobuf@@@Z
	??$_Fill_zero_memset@PEAN@std@@YAXPEAN_K@Z
	??$_Find@PEAX@?$_Tree@V?$_Tmap_traits@PEAXPEAUSimulationResults@combat_model@@U?$less@PEAX@std@@V?$allocator@U?$pair@QEAXPEAUSimulationResults@combat_model@@@std@@@4@$0A@@std@@@std@@AEBAPEAU?$_Tree_node@U?$pair@QEAXPEAUSimulationResults@combat_model@@@std@@PEAX@1@AEBQEAX@Z
	??$_Find_lower_bound@PEAX@?$_Tree@V?$_Tmap_traits@PEAXPEAUSimulationResults@combat_model@@U?$less@PEAX@std@@V?$allocator@U?$pair@QEAXPEAUSimulationResults@combat_model@@@std@@@4@$0A@@std@@@std@@IEBA?AU?$_Tree_find_result@PEAU?$_Tree_node@U?$pair@QEAXPEAUSimulationResults@combat_model@@@std@@PEAX@std@@@1@AEBQEAX@Z
	??$_Fputc@D@std@@YA_NDPEAU_iobuf@@@Z
	??$_Freenode0@V?$allocator@U?$_Tree_node@U?$pair@QEAXPEAUSimulationResults@combat_model@@@std@@PEAX@std@@@std@@@?$_Tree_node@U?$pair@QEAXPEAUSimulationResults@combat_model@@@std@@PEAX@std@@SAXAEAV?$allocator@U?$_Tree_node@U?$pair@QEAXPEAUSimulationResults@combat_model@@@std@@PEAX@std@@@1@PEAU01@@Z
	??$_Freenode@V?$allocator@U?$_Tree_node@U?$pair@QEAXPEAUSimulationResults@combat_model@@@std@@PEAX@std@@@std@@@?$_Tree_node@U?$pair@QEAXPEAUSimulationResults@combat_model@@@std@@PEAX@std@@SAXAEAV?$allocator@U?$_Tree_node@U?$pair@QEAXPEAUSimulationResults@combat_model@@@std@@PEAX@std@@@1@PEAU01@@Z
	??$_Get_index@$0A@@id@locale@std@@QEAA_KXZ
	??$_Get_size_of_n@$00@std@@YA_K_K@Z
	??$_Get_size_of_n@$07@std@@YA_K_K@Z
	??$_Get_size_of_n@$0BI@@std@@YA_K_K@Z
	??$_Get_size_of_n@$0CA@@std@@YA_K_K@Z
	??$_Get_size_of_n@$0DA@@std@@YA_K_K@Z
	??$_Get_size_of_n@$0GI@@std@@YA_K_K@Z
	??$_Get_unwrapped@AEBQEAN@std@@YA?A_TAEBQEAN@Z
	??$_Get_unwrapped@AEBQEAUUnitType@combat_model@@@std@@YA?A_TAEBQEAUUnitType@combat_model@@@Z
	??$_Get_unwrapped@AEBQEAV?$basic_string@DU?$char_traits@D@std@@V?$allocator@D@2@@std@@@std@@YA?A_TAEBQEAV?$basic_string@DU?$char_traits@D@std@@V?$allocator@D@2@@0@@Z
	??$_Get_unwrapped@AEBQEAV?$vector@NV?$allocator@N@std@@@std@@@std@@YA?A_TAEBQEAV?$vector@NV?$allocator@N@std@@@0@@Z
	??$_Get_unwrapped@AEBV?$_Vector_iterator@V?$_Vector_val@U?$_Simple_types@N@std@@@std@@@std@@@std@@YA?A_TAEBV?$_Vector_iterator@V?$_Vector_val@U?$_Simple_types@N@std@@@std@@@0@@Z
	??$_Get_unwrapped@PEAN@std@@YA?A_T$$QEAPEAN@Z
	??$_Get_unwrapped@PEAUUnitType@combat_model@@@std@@YA?A_T$$QEAPEAUUnitType@combat_model@@@Z
	??$_Get_unwrapped@PEAV?$vector@NV?$allocator@N@std@@@std@@@std@@YA?A_T$$QEAPEAV?$vector@NV?$allocator@N@std@@@0@@Z
	??$_Insert_string@DU?$char_traits@D@std@@_K@std@@YAAEAV?$basic_ostream@DU?$char_traits@D@std@@@0@AEAV10@QEBD_K@Z
	??$_Is_all_bits_zero@N@std@@YA_NAEBN@Z
	??$_Kfn@QEAXPEAUSimulationResults@combat_model@@@?$_Tmap_traits@PEAXPEAUSimulationResults@combat_model@@U?$less@PEAX@std@@V?$allocator@U?$pair@QEAXPEAUSimulationResults@combat_model@@@std@@@4@$0A@@std@@SAAEBQEAXAEBU?$pair@QEAXPEAUSimulationResults@combat_model@@@1@@Z
	??$_Lower_bound_duplicate@PEAX@?$_Tree@V?$_Tmap_traits@PEAXPEAUSimulationResults@combat_model@@U?$less@PEAX@std@@V?$allocator@U?$pair@QEAXPEAUSimulationResults@combat_model@@@std@@@4@$0A@@std@@@std@@IEBA_NQEAU?$_Tree_node@U?$pair@QEAXPEAUSimulationResults@combat_model@@@std@@PEAX@1@AEBQEAX@Z
	??$_Max_limit@_J@std@@YA_JXZ
	??$_Pocca@V?$allocator@N@std@@@std@@YAXAEAV?$allocator@N@0@AEBV10@@Z
	??$_Pocma@V?$allocator@D@std@@@std@@YAXAEAV?$allocator@D@0@0@Z
	??$_Pocma@V?$allocator@N@std@@@std@@YAXAEAV?$allocator@N@0@0@Z
	??$_Reallocate_grow_by@V<lambda_319d5e083f45f90dcdce5dce53cbb275>@@D@?$basic_string@DU?$char_traits@D@std@@V?$allocator@D@2@@std@@AEAAAEAV01@_KV<lambda_319d5e083f45f90dcdce5dce53cbb275>@@D@Z
	??$_Resize@N@?$vector@NV?$allocator@N@std@@@std@@AEAAX_KAEBN@Z
	??$_Resize@U_Value_init_tag@std@@@?$vector@NV?$allocator@N@std@@@std@@AEAAX_KAEBU_Value_init_tag@1@@Z
	??$_Resize@U_Value_init_tag@std@@@?$vector@UUnitType@combat_model@@V?$allocator@UUnitType@combat_model@@@std@@@std@@AEAAX_KAEBU_Value_init_tag@1@@Z
	??$_Resize@V?$vector@NV?$allocator@N@std@@@std@@@?$vector@V?$vector@NV?$allocator@N@std@@@std@@V?$allocator@V?$vector@NV?$allocator@N@std@@@std@@@2@@std@@AEAAX_KAEBV?$vector@NV?$allocator@N@std@@@1@@Z
	??$_Resize_reallocate@N@?$vector@NV?$allocator@N@std@@@std@@AEAAX_KAEBN@Z
	??$_Resize_reallocate@U_Value_init_tag@std@@@?$vector@NV?$allocator@N@std@@@std@@AEAAX_KAEBU_Value_init_tag@1@@Z
	??$_Resize_reallocate@U_Value_init_tag@std@@@?$vector@UUnitType@combat_model@@V?$allocator@UUnitType@combat_model@@@std@@@std@@AEAAX_KAEBU_Value_init_tag@1@@Z
	??$_Resize_reallocate@V?$vector@NV?$allocator@N@std@@@std@@@?$vector@V?$vector@NV?$allocator@N@std@@@std@@V?$allocator@V?$vector@NV?$allocator@N@std@@@std@@@2@@std@@AEAAX_KAEBV?$vector@NV?$allocator@N@std@@@1@@Z
	??$_To_address@PEAN@std@@YA?A_PAEBQEAN@Z
	??$_Try_emplace@AEBQEAX$$V@?$map@PEAXPEAUSimulationResults@combat_model@@U?$less@PEAX@std@@V?$allocator@U?$pair@QEAXPEAUSimulationResults@combat_model@@@std@@@4@@std@@AEAA?AU?$pair@PEAU?$_Tree_node@U?$pair@QEAXPEAUSimulationResults@combat_model@@@std@@PEAX@std@@_N@1@AEBQEAX@Z
	??$_Tuple_get@$0A@AEBQEAX@std@@YA$$QEA_P$$QEAV?$tuple@AEBQEAX@0@@Z
	??$_Unfancy@D@std@@YAPEADPEAD@Z
	??$_Unfancy@N@std@@YAPEANPEAN@Z
	??$_Unfancy@UUnitType@combat_model@@@std@@YAPEAUUnitType@combat_model@@PEAU12@@Z
	??$_Unfancy@V?$basic_string@DU?$char_traits@D@std@@V?$allocator@D@2@@std@@@std@@YAPEAV?$basic_string@DU?$char_traits@D@std@@V?$allocator@D@2@@0@PEAV10@@Z
	??$_Unfancy@V?$vector@NV?$allocator@N@std@@@std@@@std@@YAPEAV?$vector@NV?$allocator@N@std@@@0@PEAV10@@Z
	??$_Unfancy_maybe_null@N@std@@YAPEANPEAN@Z
	??$_Unfancy_maybe_null@UUnitType@combat_model@@@std@@YAPEAUUnitType@combat_model@@PEAU12@@Z
	??$_Unfancy_maybe_null@V?$basic_string@DU?$char_traits@D@std@@V?$allocator@D@2@@std@@@std@@YAPEAV?$basic_string@DU?$char_traits@D@std@@V?$allocator@D@2@@0@PEAV10@@Z
	??$_Ungetc@D@std@@YA_NAEBDPEAU_iobuf@@@Z
	??$_Uninitialized_copy@PEANPEANV?$allocator@N@std@@@std@@YAPEANPEAN00AEAV?$allocator@N@0@@Z
	??$_Uninitialized_copy@PEAUUnitType@combat_model@@PEAU12@V?$allocator@UUnitType@combat_model@@@std@@@std@@YAPEAUUnitType@combat_model@@PEAU12@00AEAV?$allocator@UUnitType@combat_model@@@0@@Z
	??$_Uninitialized_copy@PEAV?$vector@NV?$allocator@N@std@@@std@@PEAV12@V?$allocator@V?$vector@NV?$allocator@N@std@@@std@@@2@@std@@YAPEAV?$vector@NV?$allocator@N@std@@@0@PEAV10@00AEAV?$allocator@V?$vector@NV?$allocator@N@std@@@std@@@0@@Z
	??$_Uninitialized_copy_n@PEANV?$allocator@N@std@@@std@@YAPEANPEAN_K0AEAV?$allocator@N@0@@Z
	??$_Uninitialized_fill_n@V?$allocator@N@std@@@std@@YAPEANPEAN_KAEBNAEAV?$allocator@N@0@@Z
	??$_Uninitialized_fill_n@V?$allocator@V?$vector@NV?$allocator@N@std@@@std@@@std@@@std@@YAPEAV?$vector@NV?$allocator@N@std@@@0@PEAV10@_KAEBV10@AEAV?$allocator@V?$vector@NV?$allocator@N@std@@@std@@@0@@Z
	??$_Uninitialized_move@PEANV?$allocator@N@std@@@std@@YAPEANQEAN0PEANAEAV?$allocator@N@0@@Z
	??$_Uninitialized_move@PEAUUnitType@combat_model@@V?$allocator@UUnitType@combat_model@@@std@@@std@@YAPEAUUnitType@combat_model@@QEAU12@0PEAU12@AEAV?$allocator@UUnitType@combat_model@@@0@@Z
	??$_Uninitialized_move@PEAV?$basic_string@DU?$char_traits@D@std@@V?$allocator@D@2@@std@@V?$allocator@V?$basic_string@DU?$char_traits@D@std@@V?$allocator@D@2@@std@@@2@@std@@YAPEAV?$basic_string@DU?$char_traits@D@std@@V?$allocator@D@2@@0@QEAV10@0PEAV10@AEAV?$allocator@V?$basic_string@DU?$char_traits@D@std@@V?$allocator@D@2@@std@@@0@@Z
	??$_Uninitialized_move@PEAV?$vector@NV?$allocator@N@std@@@std@@V?$allocator@V?$vector@NV?$allocator@N@std@@@std@@@2@@std@@YAPEAV?$vector@NV?$allocator@N@std@@@0@QEAV10@0PEAV10@AEAV?$allocator@V?$vector@NV?$allocator@N@std@@@std@@@0@@Z
	??$_Uninitialized_value_construct_n@V?$allocator@N@std@@@std@@YAPEANPEAN_KAEAV?$allocator@N@0@@Z
	??$_Uninitialized_value_construct_n@V?$allocator@UUnitType@combat_model@@@std@@@std@@YAPEAUUnitType@combat_model@@PEAU12@_KAEAV?$allocator@UUnitType@combat_model@@@0@@Z
	??$_Zero_range@PEAN@std@@YAPEANQEAN0@Z
	??$accumulate@V?$_Vector_iterator@V?$_Vector_val@U?$_Simple_types@N@std@@@std@@@std@@N@std@@YANV?$_Vector_iterator@V?$_Vector_val@U?$_Simple_types@N@std@@@std@@@0@0N@Z
	??$accumulate@V?$_Vector_iterator@V?$_Vector_val@U?$_Simple_types@N@std@@@std@@@std@@NU?$plus@X@2@@std@@YANV?$_Vector_iterator@V?$_Vector_val@U?$_Simple_types@N@std@@@std@@@0@0NU?$plus@X@0@@Z
	??$addressof@$$CBV?$_Tree_val@U?$_Tree_simple_types@U?$pair@QEAXPEAUSimulationResults@combat_model@@@std@@@std@@@std@@@std@@YAPEBV?$_Tree_val@U?$_Tree_simple_types@U?$pair@QEAXPEAUSimulationResults@combat_model@@@std@@@std@@@0@AEBV10@@Z
	??$addressof@$$CBV?$codecvt@DDU_Mbstatet@@@std@@@std@@YAPEBV?$codecvt@DDU_Mbstatet@@@0@AEBV10@@Z
	??$addressof@$$CBV?$vector@NV?$allocator@N@std@@@std@@@std@@YAPEBV?$vector@NV?$allocator@N@std@@@0@AEBV10@@Z
	??$addressof@PEAD@std@@YAPEAPEADAEAPEAD@Z
	??$addressof@PEAU?$_Tree_node@U?$pair@QEAXPEAUSimulationResults@combat_model@@@std@@PEAX@std@@@std@@YAPEAPEAU?$_Tree_node@U?$pair@QEAXPEAUSimulationResults@combat_model@@@std@@PEAX@0@AEAPEAU10@@Z
	??$addressof@U?$pair@QEAXPEAUSimulationResults@combat_model@@@std@@@std@@YAPEAU?$pair@QEAXPEAUSimulationResults@combat_model@@@0@AEAU10@@Z
	??$addressof@V?$_String_val@U?$_Simple_types@D@std@@@std@@@std@@YAPEAV?$_String_val@U?$_Simple_types@D@std@@@0@AEAV10@@Z
	??$addressof@V?$_Tree_val@U?$_Tree_simple_types@U?$pair@QEAXPEAUSimulationResults@combat_model@@@std@@@std@@@std@@@std@@YAPEAV?$_Tree_val@U?$_Tree_simple_types@U?$pair@QEAXPEAUSimulationResults@combat_model@@@std@@@std@@@0@AEAV10@@Z
	??$addressof@V?$_Vector_val@U?$_Simple_types@N@std@@@std@@@std@@YAPEAV?$_Vector_val@U?$_Simple_types@N@std@@@0@AEAV10@@Z
	??$addressof@V?$basic_filebuf@DU?$char_traits@D@std@@@std@@@std@@YAPEAV?$basic_filebuf@DU?$char_traits@D@std@@@0@AEAV10@@Z
	??$addressof@V?$basic_ostream@DU?$char_traits@D@std@@@std@@@std@@YAPEAV?$basic_ostream@DU?$char_traits@D@std@@@0@AEAV10@@Z
	??$addressof@V?$basic_string@DU?$char_traits@D@std@@V?$allocator@D@2@@std@@@std@@YAPEAV?$basic_string@DU?$char_traits@D@std@@V?$allocator@D@2@@0@AEAV10@@Z
	??$addressof@V?$vector@NV?$allocator@N@std@@@std@@@std@@YAPEAV?$vector@NV?$allocator@N@std@@@0@AEAV10@@Z
	??$construct@N$$V@?$_Default_allocator_traits@V?$allocator@N@std@@@std@@SAXAEAV?$allocator@N@1@QEAN@Z
	??$construct@NAEAN@?$_Default_allocator_traits@V?$allocator@N@std@@@std@@SAXAEAV?$allocator@N@1@QEANAEAN@Z
	??$construct@NAEBN@?$_Default_allocator_traits@V?$allocator@N@std@@@std@@SAXAEAV?$allocator@N@1@QEANAEBN@Z
	??$construct@NN@?$_Default_allocator_traits@V?$allocator@N@std@@@std@@SAXAEAV?$allocator@N@1@QEAN$$QEAN@Z
	??$construct@U?$pair@QEAXPEAUSimulationResults@combat_model@@@std@@AEBUpiecewise_construct_t@2@V?$tuple@AEBQEAX@2@V?$tuple@$$V@2@@?$_Default_allocator_traits@V?$allocator@U?$_Tree_node@U?$pair@QEAXPEAUSimulationResults@combat_model@@@std@@PEAX@std@@@std@@@std@@SAXAEAV?$allocator@U?$_Tree_node@U?$pair@QEAXPEAUSimulationResults@combat_model@@@std@@PEAX@std@@@1@QEAU?$pair@QEAXPEAUSimulationResults@combat_model@@@1@AEBUpiecewise_construct_t@1@$$QEAV?$tuple@AEBQEAX@1@$$QEAV?$tuple@$$V@1@@Z
	??$construct@UUnitType@combat_model@@$$V@?$_Default_allocator_traits@V?$allocator@UUnitType@combat_model@@@std@@@std@@SAXAEAV?$allocator@UUnitType@combat_model@@@1@QEAUUnitType@combat_model@@@Z
	??$construct@UUnitType@combat_model@@AEAU12@@?$_Default_allocator_traits@V?$allocator@UUnitType@combat_model@@@std@@@std@@SAXAEAV?$allocator@UUnitType@combat_model@@@1@QEAUUnitType@combat_model@@AEAU34@@Z
	??$construct@UUnitType@combat_model@@U12@@?$_Default_allocator_traits@V?$allocator@UUnitType@combat_model@@@std@@@std@@SAXAEAV?$allocator@UUnitType@combat_model@@@1@QEAUUnitType@combat_model@@$$QEAU34@@Z
	??$construct@V?$basic_string@DU?$char_traits@D@std@@V?$allocator@D@2@@std@@V12@@?$_Default_allocator_traits@V?$allocator@V?$basic_string@DU?$char_traits@D@std@@V?$allocator@D@2@@std@@@std@@@std@@SAXAEAV?$allocator@V?$basic_string@DU?$char_traits@D@std@@V?$allocator@D@2@@std@@@1@QEAV?$basic_string@DU?$char_traits@D@std@@V?$allocator@D@2@@1@$$QEAV31@@Z
	??$construct@V?$vector@NV?$allocator@N@std@@@std@@AEAV12@@?$_Default_allocator_traits@V?$allocator@V?$vector@NV?$allocator@N@std@@@std@@@std@@@std@@SAXAEAV?$allocator@V?$vector@NV?$allocator@N@std@@@std@@@1@QEAV?$vector@NV?$allocator@N@std@@@1@AEAV31@@Z
	??$construct@V?$vector@NV?$allocator@N@std@@@std@@AEBV12@@?$_Default_allocator_traits@V?$allocator@V?$vector@NV?$allocator@N@std@@@std@@@std@@@std@@SAXAEAV?$allocator@V?$vector@NV?$allocator@N@std@@@std@@@1@QEAV?$vector@NV?$allocator@N@std@@@1@AEBV31@@Z
	??$construct@V?$vector@NV?$allocator@N@std@@@std@@V12@@?$_Default_allocator_traits@V?$allocator@V?$vector@NV?$allocator@N@std@@@std@@@std@@@std@@SAXAEAV?$allocator@V?$vector@NV?$allocator@N@std@@@std@@@1@QEAV?$vector@NV?$allocator@N@std@@@1@$$QEAV31@@Z
	??$destroy@U?$pair@QEAXPEAUSimulationResults@combat_model@@@std@@@?$_Default_allocator_traits@V?$allocator@U?$_Tree_node@U?$pair@QEAXPEAUSimulationResults@combat_model@@@std@@PEAX@std@@@std@@@std@@SAXAEAV?$allocator@U?$_Tree_node@U?$pair@QEAXPEAUSimulationResults@combat_model@@@std@@PEAX@std@@@1@QEAU?$pair@QEAXPEAUSimulationResults@combat_model@@@1@@Z
	??$destroy@UUnitType@combat_model@@@?$_Default_allocator_traits@V?$allocator@UUnitType@combat_model@@@std@@@std@@SAXAEAV?$allocator@UUnitType@combat_model@@@1@QEAUUnitType@combat_model@@@Z
	??$destroy@V?$basic_string@DU?$char_traits@D@std@@V?$allocator@D@2@@std@@@?$_Default_allocator_traits@V?$allocator@V?$basic_string@DU?$char_traits@D@std@@V?$allocator@D@2@@std@@@std@@@std@@SAXAEAV?$allocator@V?$basic_string@DU?$char_traits@D@std@@V?$allocator@D@2@@std@@@1@QEAV?$basic_string@DU?$char_traits@D@std@@V?$allocator@D@2@@1@@Z
	??$destroy@V?$vector@NV?$allocator@N@std@@@std@@@?$_Default_allocator_traits@V?$allocator@V?$vector@NV?$allocator@N@std@@@std@@@std@@@std@@SAXAEAV?$allocator@V?$vector@NV?$allocator@N@std@@@std@@@1@QEAV?$vector@NV?$allocator@N@std@@@1@@Z
	??$duration_cast@V?$duration@NU?$ratio@$00$0DOI@@std@@@chrono@std@@_JU?$ratio@$00$0DLJKMKAA@@3@$0A@@chrono@std@@YA?AV?$duration@NU?$ratio@$00$0DOI@@std@@@01@AEBV?$duration@_JU?$ratio@$00$0DLJKMKAA@@std@@@01@@Z
	??$endl@DU?$char_traits@D@std@@@std@@YAAEAV?$basic_ostream@DU?$char_traits@D@std@@@0@AEAV10@@Z
	??$erase@V?$_Tree_iterator@V?$_Tree_val@U?$_Tree_simple_types@U?$pair@QEAXPEAUSimulationResults@combat_model@@@std@@@std@@@std@@@std@@$0A@@?$_Tree@V?$_Tmap_traits@PEAXPEAUSimulationResults@combat_model@@U?$less@PEAX@std@@V?$allocator@U?$pair@QEAXPEAUSimulationResults@combat_model@@@std@@@4@$0A@@std@@@std@@QEAA?AV?$_Tree_iterator@V?$_Tree_val@U?$_Tree_simple_types@U?$pair@QEAXPEAUSimulationResults@combat_model@@@std@@@std@@@std@@@1@V21@@Z
	??$exchange@PEAN$$T@std@@YAPEANAEAPEAN$$QEA$$T@Z
	??$exchange@PEAU?$_Tree_node@U?$pair@QEAXPEAUSimulationResults@combat_model@@@std@@PEAX@std@@$$T@std@@YAPEAU?$_Tree_node@U?$pair@QEAXPEAUSimulationResults@combat_model@@@std@@PEAX@0@AEAPEAU10@$$QEA$$T@Z
	??$exchange@PEAU?$_Tree_node@U?$pair@QEAXPEAUSimulationResults@combat_model@@@std@@PEAX@std@@AEAPEAU12@@std@@YAPEAU?$_Tree_node@U?$pair@QEAXPEAUSimulationResults@combat_model@@@std@@PEAX@0@AEAPEAU10@0@Z
	??$exchange@PEAV?$vector@NV?$allocator@N@std@@@std@@$$T@std@@YAPEAV?$vector@NV?$allocator@N@std@@@0@AEAPEAV10@$$QEA$$T@Z
	??$exchange@PEAV_Facet_base@std@@$$T@std@@YAPEAV_Facet_base@0@AEAPEAV10@$$QEA$$T@Z
	??$fill@PEANN@std@@YAXQEAN0AEBN@Z
	??$fill@PEAV?$vector@NV?$allocator@N@std@@@std@@V12@@std@@YAXQEAV?$vector@NV?$allocator@N@std@@@0@0AEBV10@@Z
	??$forward@AEAN@std@@YAAEANAEAN@Z
	??$forward@AEAPEAD@std@@YAAEAPEADAEAPEAD@Z
	??$forward@AEAPEAU?$_Tree_node@U?$pair@QEAXPEAUSimulationResults@combat_model@@@std@@PEAX@std@@@std@@YAAEAPEAU?$_Tree_node@U?$pair@QEAXPEAUSimulationResults@combat_model@@@std@@PEAX@0@AEAPEAU10@@Z
	??$forward@AEAPEAV_Facet_base@std@@@std@@YAAEAPEAV_Facet_base@0@AEAPEAV10@@Z
	??$forward@AEAUUnitType@combat_model@@@std@@YAAEAUUnitType@combat_model@@AEAU12@@Z
	??$forward@AEAV?$vector@NV?$allocator@N@std@@@std@@@std@@YAAEAV?$vector@NV?$allocator@N@std@@@0@AEAV10@@Z
	??$forward@AEBN@std@@YAAEBNAEBN@Z
	??$forward@AEBQEAD@std@@YAAEBQEADAEBQEAD@Z
	??$forward@AEBQEAN@std@@YAAEBQEANAEBQEAN@Z
	??$forward@AEBQEAU?$_Tree_node@U?$pair@QEAXPEAUSimulationResults@combat_model@@@std@@PEAX@std@@@std@@YAAEBQEAU?$_Tree_node@U?$pair@QEAXPEAUSimulationResults@combat_model@@@std@@PEAX@0@AEBQEAU10@@Z
	??$forward@AEBQEAUUnitType@combat_model@@@std@@YAAEBQEAUUnitType@combat_model@@AEBQEAU12@@Z
	??$forward@AEBQEAV?$vector@NV?$allocator@N@std@@@std@@@std@@YAAEBQEAV?$vector@NV?$allocator@N@std@@@0@AEBQEAV10@@Z
	??$forward@AEBQEAX@std@@YAAEBQEAXAEBQEAX@Z
	??$forward@AEBU?$less@PEAX@std@@@std@@YAAEBU?$less@PEAX@0@AEBU10@@Z
	??$forward@AEBUpiecewise_construct_t@std@@@std@@YAAEBUpiecewise_construct_t@0@AEBU10@@Z
	??$forward@AEBV?$allocator@N@std@@@std@@YAAEBV?$allocator@N@0@AEBV10@@Z
	??$forward@AEBV?$vector@NV?$allocator@N@std@@@std@@@std@@YAAEBV?$vector@NV?$allocator@N@std@@@0@AEBV10@@Z
	??$forward@N@std@@YA$$QEANAEAN@Z
	??$forward@PEAN@std@@YA$$QEAPEANAEAPEAN@Z
	??$forward@PEAU?$_Tree_node@U?$pair@QEAXPEAUSimulationResults@combat_model@@@std@@PEAX@std@@@std@@YA$$QEAPEAU?$_Tree_node@U?$pair@QEAXPEAUSimulationResults@combat_model@@@std@@PEAX@0@AEAPEAU10@@Z
	??$forward@PEAV?$vector@NV?$allocator@N@std@@@std@@@std@@YA$$QEAPEAV?$vector@NV?$allocator@N@std@@@0@AEAPEAV10@@Z
	??$forward@UUnitType@combat_model@@@std@@YA$$QEAUUnitType@combat_model@@AEAU12@@Z
	??$forward@U_Zero_then_variadic_args_t@std@@@std@@YA$$QEAU_Zero_then_variadic_args_t@0@AEAU10@@Z
	??$forward@V?$allocator@D@std@@@std@@YA$$QEAV?$allocator@D@0@AEAV10@@Z
	??$forward@V?$allocator@N@std@@@std@@YA$$QEAV?$allocator@N@0@AEAV10@@Z
	??$forward@V?$allocator@UUnitType@combat_model@@@std@@@std@@YA$$QEAV?$allocator@UUnitType@combat_model@@@0@AEAV10@@Z
	??$forward@V?$allocator@V?$vector@NV?$allocator@N@std@@@std@@@std@@@std@@YA$$QEAV?$allocator@V?$vector@NV?$allocator@N@std@@@std@@@0@AEAV10@@Z
	??$forward@V?$basic_string@DU?$char_traits@D@std@@V?$allocator@D@2@@std@@@std@@YA$$QEAV?$basic_string@DU?$char_traits@D@std@@V?$allocator@D@2@@0@AEAV10@@Z
	??$forward@V?$tuple@$$V@std@@@std@@YA$$QEAV?$tuple@$$V@0@AEAV10@@Z
	??$forward@V?$tuple@AEBQEAX@std@@@std@@YA$$QEAV?$tuple@AEBQEAX@0@AEAV10@@Z
	??$forward@V?$vector@NV?$allocator@N@std@@@std@@@std@@YA$$QEAV?$vector@NV?$allocator@N@std@@@0@AEAV10@@Z
	??$forward@_N@std@@YA$$QEA_NAEA_N@Z
	??$forward_as_tuple@$$V@std@@YA?AV?$tuple@$$V@0@XZ
	??$forward_as_tuple@AEBQEAX@std@@YA?AV?$tuple@AEBQEAX@0@AEBQEAX@Z
	??$max@H@std@@YAAEBHAEBH0@Z
	??$max@N@std@@YAAEBNAEBN0@Z
	??$max@_K@std@@YAAEB_KAEB_K0@Z
	??$min@N@std@@YAAEBNAEBN0@Z
	??$min@_K@std@@YAAEB_KAEB_K0@Z
	??$move@AEAD@std@@YA$$QEADAEAD@Z
	??$move@AEAN@std@@YA$$QEANAEAN@Z
	??$move@AEAPEAN@std@@YA$$QEAPEANAEAPEAN@Z
	??$move@AEAPEAUUnitType@combat_model@@@std@@YA$$QEAPEAUUnitType@combat_model@@AEAPEAU12@@Z
	??$move@AEAPEAV?$vector@NV?$allocator@N@std@@@std@@@std@@YA$$QEAPEAV?$vector@NV?$allocator@N@std@@@0@AEAPEAV10@@Z
	??$move@AEAUUnitType@combat_model@@@std@@YA$$QEAUUnitType@combat_model@@AEAU12@@Z
	??$move@AEAV?$allocator@D@std@@@std@@YA$$QEAV?$allocator@D@0@AEAV10@@Z
	??$move@AEAV?$allocator@N@std@@@std@@YA$$QEAV?$allocator@N@0@AEAV10@@Z
	??$move@AEAV?$allocator@V?$vector@NV?$allocator@N@std@@@std@@@std@@@std@@YA$$QEAV?$allocator@V?$vector@NV?$allocator@N@std@@@std@@@0@AEAV10@@Z
	??$move@AEAV?$basic_string@DU?$char_traits@D@std@@V?$allocator@D@2@@std@@@std@@YA$$QEAV?$basic_string@DU?$char_traits@D@std@@V?$allocator@D@2@@0@AEAV10@@Z
	??$move@AEAV?$tuple@AEBQEAX@std@@@std@@YA$$QEAV?$tuple@AEBQEAX@0@AEAV10@@Z
	??$move@AEAV?$vector@NV?$allocator@N@std@@@std@@@std@@YA$$QEAV?$vector@NV?$allocator@N@std@@@0@AEAV10@@Z
	??$swap@D$0A@@std@@YAXAEAD0@Z
	??$swap@N$0A@@std@@YAXAEAN0@Z
	??$use_facet@V?$codecvt@DDU_Mbstatet@@@std@@@std@@YAAEBV?$codecvt@DDU_Mbstatet@@@0@AEBVlocale@0@@Z
	??0?$_Alloc_construct_ptr@V?$allocator@U?$_Tree_node@U?$pair@QEAXPEAUSimulationResults@combat_model@@@std@@PEAX@std@@@std@@@std@@QEAA@AEAV?$allocator@U?$_Tree_node@U?$pair@QEAXPEAUSimulationResults@combat_model@@@std@@PEAX@std@@@1@@Z
	??0?$_Func_base@V?$vector@NV?$allocator@N@std@@@std@@AEBV12@@std@@QEAA@XZ
	??0?$_Func_class@V?$vector@NV?$allocator@N@std@@@std@@AEBV12@@std@@QEAA@XZ
	??0?$_String_val@U?$_Simple_types@D@std@@@std@@QEAA@XZ
	??0?$_Tree@V?$_Tmap_traits@PEAXPEAUSimulationResults@combat_model@@U?$less@PEAX@std@@V?$allocator@U?$pair@QEAXPEAUSimulationResults@combat_model@@@std@@@4@$0A@@std@@@std@@QEAA@AEBU?$less@PEAX@1@@Z
	??0?$_Tree_const_iterator@V?$_Tree_val@U?$_Tree_simple_types@U?$pair@QEAXPEAUSimulationResults@combat_model@@@std@@@std@@@std@@@std@@QEAA@PEAU?$_Tree_node@U?$pair@QEAXPEAUSimulationResults@combat_model@@@std@@PEAX@1@PEBV?$_Tree_val@U?$_Tree_simple_types@U?$pair@QEAXPEAUSimulationResults@combat_model@@@std@@@std@@@1@@Z
	??0?$_Tree_iterator@V?$_Tree_val@U?$_Tree_simple_types@U?$pair@QEAXPEAUSimulationResults@combat_model@@@std@@@std@@@std@@@std@@QEAA@PEAU?$_Tree_node@U?$pair@QEAXPEAUSimulationResults@combat_model@@@std@@PEAX@1@PEBV?$_Tree_val@U?$_Tree_simple_types@U?$pair@QEAXPEAUSimulationResults@combat_model@@@std@@@std@@@1@@Z
	??0?$_Tree_temp_node_alloc@V?$allocator@U?$_Tree_node@U?$pair@QEAXPEAUSimulationResults@combat_model@@@std@@PEAX@std@@@std@@@std@@QEAA@AEAV?$allocator@U?$_Tree_node@U?$pair@QEAXPEAUSimulationResults@combat_model@@@std@@PEAX@std@@@1@@Z
	??0?$_Tree_unchecked_const_iterator@V?$_Tree_val@U?$_Tree_simple_types@U?$pair@QEAXPEAUSimulationResults@combat_model@@@std@@@std@@@std@@U_Iterator_base0@2@@std@@QEAA@PEAU?$_Tree_node@U?$pair@QEAXPEAUSimulationResults@combat_model@@@std@@PEAX@1@PEBV?$_Tree_val@U?$_Tree_simple_types@U?$pair@QEAXPEAUSimulationResults@combat_model@@@std@@@std@@@1@@Z
	??0?$_Tree_unchecked_iterator@V?$_Tree_val@U?$_Tree_simple_types@U?$pair@QEAXPEAUSimulationResults@combat_model@@@std@@@std@@@std@@@std@@QEAA@PEAU?$_Tree_node@U?$pair@QEAXPEAUSimulationResults@combat_model@@@std@@PEAX@1@PEBV?$_Tree_val@U?$_Tree_simple_types@U?$pair@QEAXPEAUSimulationResults@combat_model@@@std@@@std@@@1@@Z
	??0?$_Tree_val@U?$_Tree_simple_types@U?$pair@QEAXPEAUSimulationResults@combat_model@@@std@@@std@@@std@@QEAA@XZ
	??0?$_Uninitialized_backout_al@V?$allocator@N@std@@@std@@QEAA@PEANAEAV?$allocator@N@1@@Z
	??0?$_Uninitialized_backout_al@V?$allocator@UUnitType@combat_model@@@std@@@std@@QEAA@PEAUUnitType@combat_model@@AEAV?$allocator@UUnitType@combat_model@@@1@@Z
	??0?$_Uninitialized_backout_al@V?$allocator@V?$basic_string@DU?$char_traits@D@std@@V?$allocator@D@2@@std@@@std@@@std@@QEAA@PEAV?$basic_string@DU?$char_traits@D@std@@V?$allocator@D@2@@1@AEAV?$allocator@V?$basic_string@DU?$char_traits@D@std@@V?$allocator@D@2@@std@@@1@@Z
	??0?$_Uninitialized_backout_al@V?$allocator@V?$vector@NV?$allocator@N@std@@@std@@@std@@@std@@QEAA@PEAV?$vector@NV?$allocator@N@std@@@1@AEAV?$allocator@V?$vector@NV?$allocator@N@std@@@std@@@1@@Z
	??0?$_Vector_const_iterator@V?$_Vector_val@U?$_Simple_types@N@std@@@std@@@std@@QEAA@PEANPEBU_Container_base0@1@@Z
	??0?$_Vector_iterator@V?$_Vector_val@U?$_Simple_types@N@std@@@std@@@std@@QEAA@PEANPEBU_Container_base0@1@@Z
	??0?$_Vector_val@U?$_Simple_types@N@std@@@std@@QEAA@PEAN00@Z
	??0?$_Vector_val@U?$_Simple_types@N@std@@@std@@QEAA@XZ
	??0?$_Vector_val@U?$_Simple_types@UUnitType@combat_model@@@std@@@std@@QEAA@XZ
	??0?$_Vector_val@U?$_Simple_types@V?$basic_string@DU?$char_traits@D@std@@V?$allocator@D@2@@std@@@std@@@std@@QEAA@XZ
	??0?$_Vector_val@U?$_Simple_types@V?$vector@NV?$allocator@N@std@@@std@@@std@@@std@@QEAA@PEAV?$vector@NV?$allocator@N@std@@@1@00@Z
	??0?$_Vector_val@U?$_Simple_types@V?$vector@NV?$allocator@N@std@@@std@@@std@@@std@@QEAA@XZ
	??0?$allocator@D@std@@QEAA@XZ
	??0?$allocator@N@std@@QEAA@XZ
	??0?$allocator@U?$_Tree_node@U?$pair@QEAXPEAUSimulationResults@combat_model@@@std@@PEAX@std@@@std@@QEAA@XZ
	??0?$allocator@UUnitType@combat_model@@@std@@QEAA@XZ
	??0?$allocator@V?$basic_string@DU?$char_traits@D@std@@V?$allocator@D@2@@std@@@std@@QEAA@XZ
	??0?$allocator@V?$vector@NV?$allocator@N@std@@@std@@@std@@QEAA@XZ
	??0?$basic_filebuf@DU?$char_traits@D@std@@@std@@QEAA@XZ
	??0?$basic_ofstream@DU?$char_traits@D@std@@@std@@QEAA@AEBV?$basic_string@DU?$char_traits@D@std@@V?$allocator@D@2@@1@HH@Z
	??0?$basic_ofstream@DU?$char_traits@D@std@@@std@@QEAA@PEBDHH@Z
	??0?$basic_string@DU?$char_traits@D@std@@V?$allocator@D@2@@std@@QEAA@$$QEAV01@@Z
	??0?$basic_string@DU?$char_traits@D@std@@V?$allocator@D@2@@std@@QEAA@AEBV01@@Z
	??0?$basic_string@DU?$char_traits@D@std@@V?$allocator@D@2@@std@@QEAA@QEBD@Z
	??0?$basic_string@DU?$char_traits@D@std@@V?$allocator@D@2@@std@@QEAA@XZ
	??0?$fpos@U_Mbstatet@@@std@@QEAA@U_Mbstatet@@_J@Z
	??0?$fpos@U_Mbstatet@@@std@@QEAA@_J@Z
	??0?$map@PEAXPEAUSimulationResults@combat_model@@U?$less@PEAX@std@@V?$allocator@U?$pair@QEAXPEAUSimulationResults@combat_model@@@std@@@4@@std@@QEAA@XZ
	??0?$time_point@Usteady_clock@chrono@std@@V?$duration@_JU?$ratio@$00$0DLJKMKAA@@std@@@23@@chrono@std@@QEAA@AEBV?$duration@_JU?$ratio@$00$0DLJKMKAA@@std@@@12@@Z
	??0?$tuple@$$V@std@@QEAA@AEBV01@@Z
	??0?$tuple@AEBQEAX@std@@QEAA@$$QEAV01@@Z
	??0?$vector@NV?$allocator@N@std@@@std@@QEAA@$$QEAV01@@Z
	??0?$vector@NV?$allocator@N@std@@@std@@QEAA@AEBV01@@Z
	??0?$vector@NV?$allocator@N@std@@@std@@QEAA@XZ
	??0?$vector@NV?$allocator@N@std@@@std@@QEAA@_KAEBV?$allocator@N@1@@Z
	??0?$vector@UUnitType@combat_model@@V?$allocator@UUnitType@combat_model@@@std@@@std@@QEAA@AEBV01@@Z
	??0?$vector@UUnitType@combat_model@@V?$allocator@UUnitType@combat_model@@@std@@@std@@QEAA@XZ
	??0?$vector@V?$basic_string@DU?$char_traits@D@std@@V?$allocator@D@2@@std@@V?$allocator@V?$basic_string@DU?$char_traits@D@std@@V?$allocator@D@2@@std@@@2@@std@@QEAA@XZ
	??0?$vector@V?$vector@NV?$allocator@N@std@@@std@@V?$allocator@V?$vector@NV?$allocator@N@std@@@std@@@2@@std@@QEAA@$$QEAV01@@Z
	??0?$vector@V?$vector@NV?$allocator@N@std@@@std@@V?$allocator@V?$vector@NV?$allocator@N@std@@@std@@@2@@std@@QEAA@AEBV01@@Z
	??0?$vector@V?$vector@NV?$allocator@N@std@@@std@@V?$allocator@V?$vector@NV?$allocator@N@std@@@std@@@2@@std@@QEAA@XZ
	??0CombatParams@combat_model@@QEAA@AEBU01@@Z
	??0CombatParams@combat_model@@QEAA@XZ
	??0IMEXSolver@combat_model@@QEAA@AEBUCombatParams@1@@Z
	??0Matrix@combat_model@@QEAA@$$QEAV01@@Z
	??0Matrix@combat_model@@QEAA@AEBV01@@Z
	??0Matrix@combat_model@@QEAA@_K0@Z
	??0SimulationResults@combat_model@@QEAA@$$QEAU01@@Z
	??0SimulationResults@combat_model@@QEAA@XZ
	??0UnitType@combat_model@@QEAA@$$QEAU01@@Z
	??0UnitType@combat_model@@QEAA@AEBU01@@Z
	??0UnitType@combat_model@@QEAA@XZ
	??0_Bxty@?$_String_val@U?$_Simple_types@D@std@@@std@@QEAA@XZ
	??0_Fake_proxy_ptr_impl@std@@QEAA@AEBU_Fake_allocator@1@AEBU_Container_base0@1@@Z
	??0_Sentry_base@?$basic_ostream@DU?$char_traits@D@std@@@std@@QEAA@AEAV12@@Z
	??0bad_alloc@std@@AEAA@QEBD@Z
	??0bad_alloc@std@@QEAA@AEBV01@@Z
	??0bad_array_new_length@std@@QEAA@AEBV01@@Z
	??0bad_array_new_length@std@@QEAA@XZ
	??0bad_cast@std@@QEAA@AEBV01@@Z
	??0bad_cast@std@@QEAA@XZ
	??0exception@std@@QEAA@AEBV01@@Z
	??0exception@std@@QEAA@QEBD@Z
	??0exception@std@@QEAA@QEBDH@Z
	??0invalid_argument@std@@QEAA@AEBV01@@Z
	??0invalid_argument@std@@QEAA@PEBD@Z
	??0logic_error@std@@QEAA@AEBV01@@Z
	??0logic_error@std@@QEAA@PEBD@Z
	??0sentry@?$basic_ostream@DU?$char_traits@D@std@@@std@@QEAA@AEAV12@@Z
	??1?$_Alloc_construct_ptr@V?$allocator@U?$_Tree_node@U?$pair@QEAXPEAUSimulationResults@combat_model@@@std@@PEAX@std@@@std@@@std@@QEAA@XZ
	??1?$_Compressed_pair@V?$allocator@D@std@@V?$_String_val@U?$_Simple_types@D@std@@@2@$00@std@@QEAA@XZ
	??1?$_Func_class@V?$vector@NV?$allocator@N@std@@@std@@AEBV12@@std@@QEAA@XZ
	??1?$_String_val@U?$_Simple_types@D@std@@@std@@QEAA@XZ
	??1?$_Tidy_guard@V?$vector@NV?$allocator@N@std@@@std@@@std@@QEAA@XZ
	??1?$_Tidy_guard@V?$vector@UUnitType@combat_model@@V?$allocator@UUnitType@combat_model@@@std@@@std@@@std@@QEAA@XZ
	??1?$_Tidy_guard@V?$vector@V?$vector@NV?$allocator@N@std@@@std@@V?$allocator@V?$vector@NV?$allocator@N@std@@@std@@@2@@std@@@std@@QEAA@XZ
	??1?$_Tree@V?$_Tmap_traits@PEAXPEAUSimulationResults@combat_model@@U?$less@PEAX@std@@V?$allocator@U?$pair@QEAXPEAUSimulationResults@combat_model@@@std@@@4@$0A@@std@@@std@@QEAA@XZ
	??1?$_Tree_temp_node@V?$allocator@U?$_Tree_node@U?$pair@QEAXPEAUSimulationResults@combat_model@@@std@@PEAX@std@@@std@@@std@@QEAA@XZ
	??1?$_Tree_temp_node_alloc@V?$allocator@U?$_Tree_node@U?$pair@QEAXPEAUSimulationResults@combat_model@@@std@@PEAX@std@@@std@@@std@@QEAA@XZ
	??1?$_Uninitialized_backout_al@V?$allocator@N@std@@@std@@QEAA@XZ
	??1?$_Uninitialized_backout_al@V?$allocator@UUnitType@combat_model@@@std@@@std@@QEAA@XZ
	??1?$_Uninitialized_backout_al@V?$allocator@V?$basic_string@DU?$char_traits@D@std@@V?$allocator@D@2@@std@@@std@@@std@@QEAA@XZ
	??1?$_Uninitialized_backout_al@V?$allocator@V?$vector@NV?$allocator@N@std@@@std@@@std@@@std@@QEAA@XZ
	??1?$basic_filebuf@DU?$char_traits@D@std@@@std@@UEAA@XZ
	??1?$basic_ofstream@DU?$char_traits@D@std@@@std@@UEAA@XZ
	??1?$basic_string@DU?$char_traits@D@std@@V?$allocator@D@2@@std@@QEAA@XZ
	??1?$function@$$A6A?AV?$vector@NV?$allocator@N@std@@@std@@AEBV12@@Z@std@@QEAA@XZ
	??1?$map@PEAXPEAUSimulationResults@combat_model@@U?$less@PEAX@std@@V?$allocator@U?$pair@QEAXPEAUSimulationResults@combat_model@@@std@@@4@@std@@QEAA@XZ
	??1?$unique_ptr@V_Facet_base@std@@U?$default_delete@V_Facet_base@std@@@2@@std@@QEAA@XZ
	??1?$vector@NV?$allocator@N@std@@@std@@QEAA@XZ
	??1?$vector@UUnitType@combat_model@@V?$allocator@UUnitType@combat_model@@@std@@@std@@QEAA@XZ
	??1?$vector@V?$basic_string@DU?$char_traits@D@std@@V?$allocator@D@2@@std@@V?$allocator@V?$basic_string@DU?$char_traits@D@std@@V?$allocator@D@2@@std@@@2@@std@@QEAA@XZ
	??1?$vector@V?$vector@NV?$allocator@N@std@@@std@@V?$allocator@V?$vector@NV?$allocator@N@std@@@std@@@2@@std@@QEAA@XZ
	??1CombatParams@combat_model@@QEAA@XZ
	??1IMEXSolver@combat_model@@QEAA@XZ
	??1Matrix@combat_model@@QEAA@XZ
	??1SimulationResults@combat_model@@QEAA@XZ
	??1UnitType@combat_model@@QEAA@XZ
	??1_Bxty@?$_String_val@U?$_Simple_types@D@std@@@std@@QEAA@XZ
	??1_Reallocation_guard@?$vector@NV?$allocator@N@std@@@std@@QEAA@XZ
	??1_Reallocation_guard@?$vector@UUnitType@combat_model@@V?$allocator@UUnitType@combat_model@@@std@@@std@@QEAA@XZ
	??1_Reallocation_guard@?$vector@V?$basic_string@DU?$char_traits@D@std@@V?$allocator@D@2@@std@@V?$allocator@V?$basic_string@DU?$char_traits@D@std@@V?$allocator@D@2@@std@@@2@@std@@QEAA@XZ
	??1_Reallocation_guard@?$vector@V?$vector@NV?$allocator@N@std@@@std@@V?$allocator@V?$vector@NV?$allocator@N@std@@@std@@@2@@std@@QEAA@XZ
	??1_Sentry_base@?$basic_ostream@DU?$char_traits@D@std@@@std@@QEAA@XZ
	??1bad_alloc@std@@UEAA@XZ
	??1bad_array_new_length@std@@UEAA@XZ
	??1bad_cast@std@@UEAA@XZ
	??1exception@std@@UEAA@XZ
	??1invalid_argument@std@@UEAA@XZ
	??1locale@std@@QEAA@XZ
	??1logic_error@std@@UEAA@XZ
	??1sentry@?$basic_ostream@DU?$char_traits@D@std@@@std@@QEAA@XZ
	??2@YAPEAX_KPEAX@Z
	??4?$basic_string@DU?$char_traits@D@std@@V?$allocator@D@2@@std@@QEAAAEAV01@$$QEAV01@@Z
	??4?$vector@NV?$allocator@N@std@@@std@@QEAAAEAV01@$$QEAV01@@Z
	??4?$vector@NV?$allocator@N@std@@@std@@QEAAAEAV01@AEBV01@@Z
	??8?$_Tree_const_iterator@V?$_Tree_val@U?$_Tree_simple_types@U?$pair@QEAXPEAUSimulationResults@combat_model@@@std@@@std@@@std@@@std@@QEBA_NAEBV01@@Z
	??9?$_Tree_const_iterator@V?$_Tree_val@U?$_Tree_simple_types@U?$pair@QEAXPEAUSimulationResults@combat_model@@@std@@@std@@@std@@@std@@QEBA_NAEBV01@@Z
	??A?$map@PEAXPEAUSimulationResults@combat_model@@U?$less@PEAX@std@@V?$allocator@U?$pair@QEAXPEAUSimulationResults@combat_model@@@std@@@4@@std@@QEAAAEAPEAUSimulationResults@combat_model@@AEBQEAX@Z
	??A?$vector@NV?$allocator@N@std@@@std@@QEAAAEAN_K@Z
	??A?$vector@NV?$allocator@N@std@@@std@@QEBAAEBN_K@Z
	??A?$vector@UUnitType@combat_model@@V?$allocator@UUnitType@combat_model@@@std@@@std@@QEAAAEAUUnitType@combat_model@@_K@Z
	??A?$vector@UUnitType@combat_model@@V?$allocator@UUnitType@combat_model@@@std@@@std@@QEBAAEBUUnitType@combat_model@@_K@Z
	??A?$vector@V?$vector@NV?$allocator@N@std@@@std@@V?$allocator@V?$vector@NV?$allocator@N@std@@@std@@@2@@std@@QEAAAEAV?$vector@NV?$allocator@N@std@@@1@_K@Z
	??A?$vector@V?$vector@NV?$allocator@N@std@@@std@@V?$allocator@V?$vector@NV?$allocator@N@std@@@std@@@2@@std@@QEBAAEBV?$vector@NV?$allocator@N@std@@@1@_K@Z
	??B?$fpos@U_Mbstatet@@@std@@QEBA_JXZ
	??Bsentry@?$basic_ostream@DU?$char_traits@D@std@@@std@@QEBA_NXZ
	??C?$_Tree_iterator@V?$_Tree_val@U?$_Tree_simple_types@U?$pair@QEAXPEAUSimulationResults@combat_model@@@std@@@std@@@std@@@std@@QEBAPEAU?$pair@QEAXPEAUSimulationResults@combat_model@@@1@XZ
	??D?$_Tree_const_iterator@V?$_Tree_val@U?$_Tree_simple_types@U?$pair@QEAXPEAUSimulationResults@combat_model@@@std@@@std@@@std@@@std@@QEBAAEBU?$pair@QEAXPEAUSimulationResults@combat_model@@@1@XZ
	??D?$_Tree_iterator@V?$_Tree_val@U?$_Tree_simple_types@U?$pair@QEAXPEAUSimulationResults@combat_model@@@std@@@std@@@std@@@std@@QEBAAEAU?$pair@QEAXPEAUSimulationResults@combat_model@@@1@XZ
	??E?$_Tree_unchecked_const_iterator@V?$_Tree_val@U?$_Tree_simple_types@U?$pair@QEAXPEAUSimulationResults@combat_model@@@std@@@std@@@std@@U_Iterator_base0@2@@std@@QEAAAEAV01@XZ
	??R<lambda_319d5e083f45f90dcdce5dce53cbb275>@@QEBA@QEADQEBD_KD@Z
	??R?$_Func_class@V?$vector@NV?$allocator@N@std@@@std@@AEBV12@@std@@QEBA?AV?$vector@NV?$allocator@N@std@@@1@AEBV21@@Z
	??R?$default_delete@V_Facet_base@std@@@std@@QEBAXPEAV_Facet_base@1@@Z
	??R?$less@PEAX@std@@QEBA_NAEBQEAX0@Z
	??RMatrix@combat_model@@QEAAAEAN_K0@Z
	??_7?$basic_filebuf@DU?$char_traits@D@std@@@std@@6B@
	??_7?$basic_ofstream@DU?$char_traits@D@std@@@std@@6B@
	??_7bad_alloc@std@@6B@
	??_7bad_array_new_length@std@@6B@
	??_7bad_cast@std@@6B@
	??_7exception@std@@6B@
	??_7invalid_argument@std@@6B@
	??_7logic_error@std@@6B@
	??_D?$basic_ofstream@DU?$char_traits@D@std@@@std@@QEAAXXZ
	?_Activate_SSO_buffer@?$_String_val@U?$_Simple_types@D@std@@@std@@QEAAXXZ
	?_Adjust_manually_vector_aligned@std@@YAXAEAPEAXAEA_K@Z
	?_Adopt@_Iterator_base0@std@@QEAAXPEBX@Z
	?_Alloc_proxy@_Container_base0@std@@QEAAXAEBU_Fake_allocator@2@@Z
	?_Alloc_sentinel_and_proxy@?$_Tree@V?$_Tmap_traits@PEAXPEAUSimulationResults@combat_model@@U?$less@PEAX@std@@V?$allocator@U?$pair@QEAXPEAUSimulationResults@combat_model@@@std@@@4@$0A@@std@@@std@@IEAAXXZ
	?_Allocate@?$_Alloc_construct_ptr@V?$allocator@U?$_Tree_node@U?$pair@QEAXPEAUSimulationResults@combat_model@@@std@@PEAX@std@@@std@@@std@@QEAAXXZ
	?_Allocate@_Default_allocate_traits@std@@SAPEAX_K@Z
	?_Buy_nonzero@?$vector@NV?$allocator@N@std@@@std@@AEAAX_K@Z
	?_Buy_nonzero@?$vector@UUnitType@combat_model@@V?$allocator@UUnitType@combat_model@@@std@@@std@@AEAAX_K@Z
	?_Buy_nonzero@?$vector@V?$vector@NV?$allocator@N@std@@@std@@V?$allocator@V?$vector@NV?$allocator@N@std@@@std@@@2@@std@@AEAAX_K@Z
	?_Buy_raw@?$vector@NV?$allocator@N@std@@@std@@AEAAX_K@Z
	?_Buy_raw@?$vector@UUnitType@combat_model@@V?$allocator@UUnitType@combat_model@@@std@@@std@@AEAAX_K@Z
	?_Buy_raw@?$vector@V?$vector@NV?$allocator@N@std@@@std@@V?$allocator@V?$vector@NV?$allocator@N@std@@@std@@@2@@std@@AEAAX_K@Z
	?_Calculate_growth@?$basic_string@DU?$char_traits@D@std@@V?$allocator@D@2@@std@@AEBA_K_K@Z
	?_Calculate_growth@?$basic_string@DU?$char_traits@D@std@@V?$allocator@D@2@@std@@CA_K_K00@Z
	?_Calculate_growth@?$vector@NV?$allocator@N@std@@@std@@AEBA_K_K@Z
	?_Calculate_growth@?$vector@UUnitType@combat_model@@V?$allocator@UUnitType@combat_model@@@std@@@std@@AEBA_K_K@Z
	?_Calculate_growth@?$vector@V?$basic_string@DU?$char_traits@D@std@@V?$allocator@D@2@@std@@V?$allocator@V?$basic_string@DU?$char_traits@D@std@@V?$allocator@D@2@@std@@@2@@std@@AEBA_K_K@Z
	?_Calculate_growth@?$vector@V?$vector@NV?$allocator@N@std@@@std@@V?$allocator@V?$vector@NV?$allocator@N@std@@@std@@@2@@std@@AEBA_K_K@Z
	?_Change_array@?$vector@NV?$allocator@N@std@@@std@@AEAAXQEAN_K1@Z
	?_Change_array@?$vector@UUnitType@combat_model@@V?$allocator@UUnitType@combat_model@@@std@@@std@@AEAAXQEAUUnitType@combat_model@@_K1@Z
	?_Change_array@?$vector@V?$basic_string@DU?$char_traits@D@std@@V?$allocator@D@2@@std@@V?$allocator@V?$basic_string@DU?$char_traits@D@std@@V?$allocator@D@2@@std@@@2@@std@@AEAAXQEAV?$basic_string@DU?$char_traits@D@std@@V?$allocator@D@2@@2@_K1@Z
	?_Change_array@?$vector@V?$vector@NV?$allocator@N@std@@@std@@V?$allocator@V?$vector@NV?$allocator@N@std@@@std@@@2@@std@@AEAAXQEAV?$vector@NV?$allocator@N@std@@@2@_K1@Z
	?_Check_grow_by_1@?$_Tree@V?$_Tmap_traits@PEAXPEAUSimulationResults@combat_model@@U?$less@PEAX@std@@V?$allocator@U?$pair@QEAXPEAUSimulationResults@combat_model@@@std@@@4@$0A@@std@@@std@@IEAAXXZ
	?_Check_offset@?$_String_val@U?$_Simple_types@D@std@@@std@@QEBAX_K@Z
	?_Clamp_suffix_size@?$_String_val@U?$_Simple_types@D@std@@@std@@QEBA_K_K0@Z
	?_Clear_and_reserve_geometric@?$vector@NV?$allocator@N@std@@@std@@AEAAX_K@Z
	?_Clear_and_reserve_geometric@?$vector@V?$vector@NV?$allocator@N@std@@@std@@V?$allocator@V?$vector@NV?$allocator@N@std@@@std@@@2@@std@@AEAAX_K@Z
	?_Construct_empty@?$basic_string@DU?$char_traits@D@std@@V?$allocator@D@2@@std@@AEAAXXZ
	?_Deallocate_for_capacity@?$basic_string@DU?$char_traits@D@std@@V?$allocator@D@2@@std@@CAXAEAV?$allocator@D@2@QEAD_K@Z
	?_Empty@?$_Func_class@V?$vector@NV?$allocator@N@std@@@std@@AEBV12@@std@@IEBA_NXZ
	?_Endwrite@?$basic_filebuf@DU?$char_traits@D@std@@@std@@IEAA_NXZ
	?_Erase_noexcept@?$basic_string@DU?$char_traits@D@std@@V?$allocator@D@2@@std@@AEAAAEAV12@_K_K@Z
	?_Erase_unchecked@?$_Tree@V?$_Tmap_traits@PEAXPEAUSimulationResults@combat_model@@U?$less@PEAX@std@@V?$allocator@U?$pair@QEAXPEAUSimulationResults@combat_model@@@std@@@4@$0A@@std@@@std@@AEAAPEAU?$_Tree_node@U?$pair@QEAXPEAUSimulationResults@combat_model@@@std@@PEAX@2@V?$_Tree_unchecked_const_iterator@V?$_Tree_val@U?$_Tree_simple_types@U?$pair@QEAXPEAUSimulationResults@combat_model@@@std@@@std@@@std@@U_Iterator_base0@2@@2@@Z
	?_Extract@?$_Tree_val@U?$_Tree_simple_types@U?$pair@QEAXPEAUSimulationResults@combat_model@@@std@@@std@@@std@@QEAAPEAU?$_Tree_node@U?$pair@QEAXPEAUSimulationResults@combat_model@@@std@@PEAX@2@V?$_Tree_unchecked_const_iterator@V?$_Tree_val@U?$_Tree_simple_types@U?$pair@QEAXPEAUSimulationResults@combat_model@@@std@@@std@@@std@@U_Iterator_base0@2@@2@@Z
	?_Get_first@?$_Compressed_pair@U?$default_delete@V_Facet_base@std@@@std@@PEAV_Facet_base@2@$00@std@@QEAAAEAU?$default_delete@V_Facet_base@std@@@2@XZ
	?_Get_first@?$_Compressed_pair@U?$less@PEAX@std@@V?$_Compressed_pair@V?$allocator@U?$_Tree_node@U?$pair@QEAXPEAUSimulationResults@combat_model@@@std@@PEAX@std@@@std@@V?$_Tree_val@U?$_Tree_simple_types@U?$pair@QEAXPEAUSimulationResults@combat_model@@@std@@@std@@@2@$00@2@$00@std@@QEBAAEBU?$less@PEAX@2@XZ
	?_Get_first@?$_Compressed_pair@V?$allocator@D@std@@V?$_String_val@U?$_Simple_types@D@std@@@2@$00@std@@QEAAAEAV?$allocator@D@2@XZ
	?_Get_first@?$_Compressed_pair@V?$allocator@D@std@@V?$_String_val@U?$_Simple_types@D@std@@@2@$00@std@@QEBAAEBV?$allocator@D@2@XZ
	?_Get_first@?$_Compressed_pair@V?$allocator@N@std@@V?$_Vector_val@U?$_Simple_types@N@std@@@2@$00@std@@QEAAAEAV?$allocator@N@2@XZ
	?_Get_first@?$_Compressed_pair@V?$allocator@N@std@@V?$_Vector_val@U?$_Simple_types@N@std@@@2@$00@std@@QEBAAEBV?$allocator@N@2@XZ
	?_Get_first@?$_Compressed_pair@V?$allocator@U?$_Tree_node@U?$pair@QEAXPEAUSimulationResults@combat_model@@@std@@PEAX@std@@@std@@V?$_Tree_val@U?$_Tree_simple_types@U?$pair@QEAXPEAUSimulationResults@combat_model@@@std@@@std@@@2@$00@std@@QEAAAEAV?$allocator@U?$_Tree_node@U?$pair@QEAXPEAUSimulationResults@combat_model@@@std@@PEAX@std@@@2@XZ
	?_Get_first@?$_Compressed_pair@V?$allocator@U?$_Tree_node@U?$pair@QEAXPEAUSimulationResults@combat_model@@@std@@PEAX@std@@@std@@V?$_Tree_val@U?$_Tree_simple_types@U?$pair@QEAXPEAUSimulationResults@combat_model@@@std@@@std@@@2@$00@std@@QEBAAEBV?$allocator@U?$_Tree_node@U?$pair@QEAXPEAUSimulationResults@combat_model@@@std@@PEAX@std@@@2@XZ
	?_Get_first@?$_Compressed_pair@V?$allocator@UUnitType@combat_model@@@std@@V?$_Vector_val@U?$_Simple_types@UUnitType@combat_model@@@std@@@2@$00@std@@QEAAAEAV?$allocator@UUnitType@combat_model@@@2@XZ
	?_Get_first@?$_Compressed_pair@V?$allocator@UUnitType@combat_model@@@std@@V?$_Vector_val@U?$_Simple_types@UUnitType@combat_model@@@std@@@2@$00@std@@QEBAAEBV?$allocator@UUnitType@combat_model@@@2@XZ
	?_Get_first@?$_Compressed_pair@V?$allocator@V?$basic_string@DU?$char_traits@D@std@@V?$allocator@D@2@@std@@@std@@V?$_Vector_val@U?$_Simple_types@V?$basic_string@DU?$char_traits@D@std@@V?$allocator@D@2@@std@@@std@@@2@$00@std@@QEAAAEAV?$allocator@V?$basic_string@DU?$char_traits@D@std@@V?$allocator@D@2@@std@@@2@XZ
	?_Get_first@?$_Compressed_pair@V?$allocator@V?$basic_string@DU?$char_traits@D@std@@V?$allocator@D@2@@std@@@std@@V?$_Vector_val@U?$_Simple_types@V?$basic_string@DU?$char_traits@D@std@@V?$allocator@D@2@@std@@@std@@@2@$00@std@@QEBAAEBV?$allocator@V?$basic_string@DU?$char_traits@D@std@@V?$allocator@D@2@@std@@@2@XZ
	?_Get_first@?$_Compressed_pair@V?$allocator@V?$vector@NV?$allocator@N@std@@@std@@@std@@V?$_Vector_val@U?$_Simple_types@V?$vector@NV?$allocator@N@std@@@std@@@std@@@2@$00@std@@QEAAAEAV?$allocator@V?$vector@NV?$allocator@N@std@@@std@@@2@XZ
	?_Get_first@?$_Compressed_pair@V?$allocator@V?$vector@NV?$allocator@N@std@@@std@@@std@@V?$_Vector_val@U?$_Simple_types@V?$vector@NV?$allocator@N@std@@@std@@@std@@@2@$00@std@@QEBAAEBV?$allocator@V?$vector@NV?$allocator@N@std@@@std@@@2@XZ
	?_Get_scary@?$_Tree@V?$_Tmap_traits@PEAXPEAUSimulationResults@combat_model@@U?$less@PEAX@std@@V?$allocator@U?$pair@QEAXPEAUSimulationResults@combat_model@@@std@@@4@$0A@@std@@@std@@IEAAPEAV?$_Tree_val@U?$_Tree_simple_types@U?$pair@QEAXPEAUSimulationResults@combat_model@@@std@@@std@@@2@XZ
	?_Get_scary@?$_Tree@V?$_Tmap_traits@PEAXPEAUSimulationResults@combat_model@@U?$less@PEAX@std@@V?$allocator@U?$pair@QEAXPEAUSimulationResults@combat_model@@@std@@@4@$0A@@std@@@std@@IEBAPEBV?$_Tree_val@U?$_Tree_simple_types@U?$pair@QEAXPEAUSimulationResults@combat_model@@@std@@@std@@@2@XZ
	?_Getal@?$_Tree@V?$_Tmap_traits@PEAXPEAUSimulationResults@combat_model@@U?$less@PEAX@std@@V?$allocator@U?$pair@QEAXPEAUSimulationResults@combat_model@@@std@@@4@$0A@@std@@@std@@IEAAAEAV?$allocator@U?$_Tree_node@U?$pair@QEAXPEAUSimulationResults@combat_model@@@std@@PEAX@std@@@2@XZ
	?_Getal@?$_Tree@V?$_Tmap_traits@PEAXPEAUSimulationResults@combat_model@@U?$less@PEAX@std@@V?$allocator@U?$pair@QEAXPEAUSimulationResults@combat_model@@@std@@@4@$0A@@std@@@std@@IEBAAEBV?$allocator@U?$_Tree_node@U?$pair@QEAXPEAUSimulationResults@combat_model@@@std@@PEAX@std@@@2@XZ
	?_Getal@?$basic_string@DU?$char_traits@D@std@@V?$allocator@D@2@@std@@AEAAAEAV?$allocator@D@2@XZ
	?_Getal@?$basic_string@DU?$char_traits@D@std@@V?$allocator@D@2@@std@@AEBAAEBV?$allocator@D@2@XZ
	?_Getal@?$vector@NV?$allocator@N@std@@@std@@AEAAAEAV?$allocator@N@2@XZ
	?_Getal@?$vector@NV?$allocator@N@std@@@std@@AEBAAEBV?$allocator@N@2@XZ
	?_Getal@?$vector@UUnitType@combat_model@@V?$allocator@UUnitType@combat_model@@@std@@@std@@AEAAAEAV?$allocator@UUnitType@combat_model@@@2@XZ
	?_Getal@?$vector@UUnitType@combat_model@@V?$allocator@UUnitType@combat_model@@@std@@@std@@AEBAAEBV?$allocator@UUnitType@combat_model@@@2@XZ
	?_Getal@?$vector@V?$basic_string@DU?$char_traits@D@std@@V?$allocator@D@2@@std@@V?$allocator@V?$basic_string@DU?$char_traits@D@std@@V?$allocator@D@2@@std@@@2@@std@@AEAAAEAV?$allocator@V?$basic_string@DU?$char_traits@D@std@@V?$allocator@D@2@@std@@@2@XZ
	?_Getal@?$vector@V?$basic_string@DU?$char_traits@D@std@@V?$allocator@D@2@@std@@V?$allocator@V?$basic_string@DU?$char_traits@D@std@@V?$allocator@D@2@@std@@@2@@std@@AEBAAEBV?$allocator@V?$basic_string@DU?$char_traits@D@std@@V?$allocator@D@2@@std@@@2@XZ
	?_Getal@?$vector@V?$vector@NV?$allocator@N@std@@@std@@V?$allocator@V?$vector@NV?$allocator@N@std@@@std@@@2@@std@@AEAAAEAV?$allocator@V?$vector@NV?$allocator@N@std@@@std@@@2@XZ
	?_Getal@?$vector@V?$vector@NV?$allocator@N@std@@@std@@V?$allocator@V?$vector@NV?$allocator@N@std@@@std@@@2@@std@@AEBAAEBV?$allocator@V?$vector@NV?$allocator@N@std@@@std@@@2@XZ
	?_Getcomp@?$_Tree@V?$_Tmap_traits@PEAXPEAUSimulationResults@combat_model@@U?$less@PEAX@std@@V?$allocator@U?$pair@QEAXPEAUSimulationResults@combat_model@@@std@@@4@$0A@@std@@@std@@IEBAAEBU?$less@PEAX@2@XZ
	?_Getcont@_Iterator_base0@std@@QEBAPEBU_Container_base0@2@XZ
	?_Getfacet@locale@std@@QEBAPEBVfacet@12@_K@Z
	?_Getimpl@?$_Func_class@V?$vector@NV?$allocator@N@std@@@std@@AEBV12@@std@@AEBAPEAV?$_Func_base@V?$vector@NV?$allocator@N@std@@@std@@AEBV12@@2@XZ
	?_Init@?$basic_filebuf@DU?$char_traits@D@std@@@std@@IEAAXPEAU_iobuf@@W4_Initfl@12@@Z
	?_Initcvt@?$basic_filebuf@DU?$char_traits@D@std@@@std@@IEAAXAEBV?$codecvt@DDU_Mbstatet@@@2@@Z
	?_Insert_node@?$_Tree_val@U?$_Tree_simple_types@U?$pair@QEAXPEAUSimulationResults@combat_model@@@std@@@std@@@std@@QEAAPEAU?$_Tree_node@U?$pair@QEAXPEAUSimulationResults@combat_model@@@std@@PEAX@2@U?$_Tree_id@PEAU?$_Tree_node@U?$pair@QEAXPEAUSimulationResults@combat_model@@@std@@PEAX@std@@@2@QEAU32@@Z
	?_Large_mode_engaged@?$_String_val@U?$_Simple_types@D@std@@@std@@QEBA_NXZ
	?_Local@?$_Func_class@V?$vector@NV?$allocator@N@std@@@std@@AEBV12@@std@@AEBA_NXZ
	?_Lock@?$basic_filebuf@DU?$char_traits@D@std@@@std@@UEAAXXZ
	?_Lrotate@?$_Tree_val@U?$_Tree_simple_types@U?$pair@QEAXPEAUSimulationResults@combat_model@@@std@@@std@@@std@@QEAAXPEAU?$_Tree_node@U?$pair@QEAXPEAUSimulationResults@combat_model@@@std@@PEAX@2@@Z
	?_Max@?$_Tree_val@U?$_Tree_simple_types@U?$pair@QEAXPEAUSimulationResults@combat_model@@@std@@@std@@@std@@SAPEAU?$_Tree_node@U?$pair@QEAXPEAUSimulationResults@combat_model@@@std@@PEAX@2@PEAU32@@Z
	?_Min@?$_Tree_val@U?$_Tree_simple_types@U?$pair@QEAXPEAUSimulationResults@combat_model@@@std@@@std@@@std@@SAPEAU?$_Tree_node@U?$pair@QEAXPEAUSimulationResults@combat_model@@@std@@PEAX@2@PEAU32@@Z
	?_Myptr@?$_String_val@U?$_Simple_types@D@std@@@std@@QEAAPEADXZ
	?_Myptr@?$_String_val@U?$_Simple_types@D@std@@@std@@QEBAPEBDXZ
	?_Orphan_all@_Container_base0@std@@QEAAXXZ
	?_Orphan_ptr@?$_Tree_val@U?$_Tree_simple_types@U?$pair@QEAXPEAUSimulationResults@combat_model@@@std@@@std@@@std@@QEAAXQEAU?$_Tree_node@U?$pair@QEAXPEAUSimulationResults@combat_model@@@std@@PEAX@2@@Z
	?_Orphan_range@?$vector@NV?$allocator@N@std@@@std@@AEBAXPEAN0@Z
	?_Orphan_range@?$vector@UUnitType@combat_model@@V?$allocator@UUnitType@combat_model@@@std@@@std@@AEBAXPEAUUnitType@combat_model@@0@Z
	?_Orphan_range@?$vector@V?$basic_string@DU?$char_traits@D@std@@V?$allocator@D@2@@std@@V?$allocator@V?$basic_string@DU?$char_traits@D@std@@V?$allocator@D@2@@std@@@2@@std@@AEBAXPEAV?$basic_string@DU?$char_traits@D@std@@V?$allocator@D@2@@2@0@Z
	?_Orphan_range@?$vector@V?$vector@NV?$allocator@N@std@@@std@@V?$allocator@V?$vector@NV?$allocator@N@std@@@std@@@2@@std@@AEBAXPEAV?$vector@NV?$allocator@N@std@@@2@0@Z
	?_Release@?$_Alloc_construct_ptr@V?$allocator@U?$_Tree_node@U?$pair@QEAXPEAUSimulationResults@combat_model@@@std@@PEAX@std@@@std@@@std@@QEAAPEAU?$_Tree_node@U?$pair@QEAXPEAUSimulationResults@combat_model@@@std@@PEAX@2@XZ
	?_Release@?$_Uninitialized_backout_al@V?$allocator@N@std@@@std@@QEAAPEANXZ
	?_Release@?$_Uninitialized_backout_al@V?$allocator@UUnitType@combat_model@@@std@@@std@@QEAAPEAUUnitType@combat_model@@XZ
	?_Release@?$_Uninitialized_backout_al@V?$allocator@V?$basic_string@DU?$char_traits@D@std@@V?$allocator@D@2@@std@@@std@@@std@@QEAAPEAV?$basic_string@DU?$char_traits@D@std@@V?$allocator@D@2@@2@XZ
	?_Release@?$_Uninitialized_backout_al@V?$allocator@V?$vector@NV?$allocator@N@std@@@std@@@std@@@std@@QEAAPEAV?$vector@NV?$allocator@N@std@@@2@XZ
	?_Release@_Fake_proxy_ptr_impl@std@@QEAAXXZ
	?_Reset_back@?$basic_filebuf@DU?$char_traits@D@std@@@std@@AEAAXXZ
	?_Rrotate@?$_Tree_val@U?$_Tree_simple_types@U?$pair@QEAXPEAUSimulationResults@combat_model@@@std@@@std@@@std@@QEAAXPEAU?$_Tree_node@U?$pair@QEAXPEAUSimulationResults@combat_model@@@std@@PEAX@2@@Z
	?_Set@?$_Func_class@V?$vector@NV?$allocator@N@std@@@std@@AEBV12@@std@@AEAAXPEAV?$_Func_base@V?$vector@NV?$allocator@N@std@@@std@@AEBV12@@2@@Z
	?_Set_back@?$basic_filebuf@DU?$char_traits@D@std@@@std@@AEAAXXZ
	?_Swap_proxy_and_iterators@?$basic_string@DU?$char_traits@D@std@@V?$allocator@D@2@@std@@AEAAXAEAV12@@Z
	?_Swap_proxy_and_iterators@_Container_base0@std@@QEAAXAEAU12@@Z
	?_Switch_to_buf@_Bxty@?$_String_val@U?$_Simple_types@D@std@@@std@@QEAAXXZ
	?_Take_contents@?$_Vector_val@U?$_Simple_types@N@std@@@std@@QEAAXAEAV12@@Z
	?_Take_contents@?$basic_string@DU?$char_traits@D@std@@V?$allocator@D@2@@std@@AEAAXAEAV12@@Z
	?_Throw_bad_array_new_length@std@@YAXXZ
	?_Throw_bad_cast@std@@YAXXZ
	?_Throw_tree_length_error@std@@YAXXZ
	?_Tidy@?$_Func_class@V?$vector@NV?$allocator@N@std@@@std@@AEBV12@@std@@IEAAXXZ
	?_Tidy@?$vector@NV?$allocator@N@std@@@std@@AEAAXXZ
	?_Tidy@?$vector@UUnitType@combat_model@@V?$allocator@UUnitType@combat_model@@@std@@@std@@AEAAXXZ
	?_Tidy@?$vector@V?$basic_string@DU?$char_traits@D@std@@V?$allocator@D@2@@std@@V?$allocator@V?$basic_string@DU?$char_traits@D@std@@V?$allocator@D@2@@std@@@2@@std@@AEAAXXZ
	?_Tidy@?$vector@V?$vector@NV?$allocator@N@std@@@std@@V?$allocator@V?$vector@NV?$allocator@N@std@@@std@@@2@@std@@AEAAXXZ
	?_Tidy_deallocate@?$basic_string@DU?$char_traits@D@std@@V?$allocator@D@2@@std@@AEAAXXZ
	?_Unchecked_begin@?$vector@NV?$allocator@N@std@@@std@@QEAAPEANXZ
	?_Unchecked_begin@?$vector@UUnitType@combat_model@@V?$allocator@UUnitType@combat_model@@@std@@@std@@QEAAPEAUUnitType@combat_model@@XZ
	?_Unchecked_begin@?$vector@V?$basic_string@DU?$char_traits@D@std@@V?$allocator@D@2@@std@@V?$allocator@V?$basic_string@DU?$char_traits@D@std@@V?$allocator@D@2@@std@@@2@@std@@QEBAPEBV?$basic_string@DU?$char_traits@D@std@@V?$allocator@D@2@@2@XZ
	?_Unchecked_end@?$vector@NV?$allocator@N@std@@@std@@QEAAPEANXZ
	?_Unchecked_end@?$vector@UUnitType@combat_model@@V?$allocator@UUnitType@combat_model@@@std@@@std@@QEAAPEAUUnitType@combat_model@@XZ
	?_Unchecked_end@?$vector@V?$basic_string@DU?$char_traits@D@std@@V?$allocator@D@2@@std@@V?$allocator@V?$basic_string@DU?$char_traits@D@std@@V?$allocator@D@2@@std@@@2@@std@@QEBAPEBV?$basic_string@DU?$char_traits@D@std@@V?$allocator@D@2@@2@XZ
	?_Unlock@?$basic_filebuf@DU?$char_traits@D@std@@@std@@UEAAXXZ
	?_Unwrapped@?$_Tree_iterator@V?$_Tree_val@U?$_Tree_simple_types@U?$pair@QEAXPEAUSimulationResults@combat_model@@@std@@@std@@@std@@@std@@QEBA?AV?$_Tree_unchecked_iterator@V?$_Tree_val@U?$_Tree_simple_types@U?$pair@QEAXPEAUSimulationResults@combat_model@@@std@@@std@@@std@@@2@XZ
	?_Unwrapped@?$_Vector_iterator@V?$_Vector_val@U?$_Simple_types@N@std@@@std@@@std@@QEBAPEANXZ
	?_Xlen_string@std@@YAXXZ
	?_Xlength@?$vector@NV?$allocator@N@std@@@std@@CAXXZ
	?_Xlength@?$vector@UUnitType@combat_model@@V?$allocator@UUnitType@combat_model@@@std@@@std@@CAXXZ
	?_Xlength@?$vector@V?$basic_string@DU?$char_traits@D@std@@V?$allocator@D@2@@std@@V?$allocator@V?$basic_string@DU?$char_traits@D@std@@V?$allocator@D@2@@std@@@2@@std@@CAXXZ
	?_Xlength@?$vector@V?$vector@NV?$allocator@N@std@@@std@@V?$allocator@V?$vector@NV?$allocator@N@std@@@std@@@2@@std@@CAXXZ
	?_Xran@?$_String_val@U?$_Simple_types@D@std@@@std@@SAXXZ
	?abs@@YANN@Z
	?allocate@?$allocator@D@std@@QEAAPEAD_K@Z
	?allocate@?$allocator@N@std@@QEAAPEAN_K@Z
	?allocate@?$allocator@U?$_Tree_node@U?$pair@QEAXPEAUSimulationResults@combat_model@@@std@@PEAX@std@@@std@@QEAAPEAU?$_Tree_node@U?$pair@QEAXPEAUSimulationResults@combat_model@@@std@@PEAX@2@_K@Z
	?allocate@?$allocator@UUnitType@combat_model@@@std@@QEAAPEAUUnitType@combat_model@@_K@Z
	?allocate@?$allocator@V?$basic_string@DU?$char_traits@D@std@@V?$allocator@D@2@@std@@@std@@QEAAPEAV?$basic_string@DU?$char_traits@D@std@@V?$allocator@D@2@@2@_K@Z
	?allocate@?$allocator@V?$vector@NV?$allocator@N@std@@@std@@@std@@QEAAPEAV?$vector@NV?$allocator@N@std@@@2@_K@Z
	?assign@?$_Narrow_char_traits@DH@std@@SAXAEADAEBD@Z
	?assign@?$vector@NV?$allocator@N@std@@@std@@QEAAX_KAEBN@Z
	?assign@?$vector@V?$vector@NV?$allocator@N@std@@@std@@V?$allocator@V?$vector@NV?$allocator@N@std@@@std@@@2@@std@@QEAAX_KAEBV?$vector@NV?$allocator@N@std@@@2@@Z
	?begin@?$vector@NV?$allocator@N@std@@@std@@QEAA?AV?$_Vector_iterator@V?$_Vector_val@U?$_Simple_types@N@std@@@std@@@2@XZ
	?c_str@?$basic_string@DU?$char_traits@D@std@@V?$allocator@D@2@@std@@QEBAPEBDXZ
	?capacity@?$vector@NV?$allocator@N@std@@@std@@QEBA_KXZ
	?capacity@?$vector@UUnitType@combat_model@@V?$allocator@UUnitType@combat_model@@@std@@@std@@QEBA_KXZ
	?capacity@?$vector@V?$basic_string@DU?$char_traits@D@std@@V?$allocator@D@2@@std@@V?$allocator@V?$basic_string@DU?$char_traits@D@std@@V?$allocator@D@2@@std@@@2@@std@@QEBA_KXZ
	?capacity@?$vector@V?$vector@NV?$allocator@N@std@@@std@@V?$allocator@V?$vector@NV?$allocator@N@std@@@std@@@2@@std@@QEBA_KXZ
	?close@?$basic_filebuf@DU?$char_traits@D@std@@@std@@QEAAPEAV12@XZ
	?close@?$basic_ofstream@DU?$char_traits@D@std@@@std@@QEAAXXZ
	?compute_jacobian_g@IMEXSolver@combat_model@@AEBA?AVMatrix@2@AEBV?$vector@NV?$allocator@N@std@@@std@@N@Z
	?compute_metrics@IMEXSolver@combat_model@@AEBAXAEBV?$vector@NV?$allocator@N@std@@@std@@AEAV34@111AEAN2@Z
	?compute_numerical@Jacobian@combat_model@@SA?AVMatrix@2@AEBV?$function@$$A6A?AV?$vector@NV?$allocator@N@std@@@std@@AEBV12@@Z@std@@AEBV?$vector@NV?$allocator@N@std@@@5@N@Z
	?compute_uav_activity@IMEXSolver@combat_model@@AEBANAEBV?$vector@NV?$allocator@N@std@@@std@@0AEBV?$vector@UUnitType@combat_model@@V?$allocator@UUnitType@combat_model@@@std@@@4@@Z
	?compute_uav_advantage@IMEXSolver@combat_model@@AEBANNN@Z
	?copy@?$_Char_traits@DH@std@@SAPEADQEADQEBD_K@Z
	?count@?$duration@NU?$ratio@$00$0DOI@@std@@@chrono@std@@QEBANXZ
	?count@?$duration@_JU?$ratio@$00$0DLJKMKAA@@std@@@chrono@std@@QEBA_JXZ
	?data@?$basic_string@DU?$char_traits@D@std@@V?$allocator@D@2@@std@@QEAAPEADXZ
	?data@?$basic_string@DU?$char_traits@D@std@@V?$allocator@D@2@@std@@QEBAPEBDXZ
	?deallocate@?$_Default_allocator_traits@V?$allocator@U?$_Tree_node@U?$pair@QEAXPEAUSimulationResults@combat_model@@@std@@PEAX@std@@@std@@@std@@SAXAEAV?$allocator@U?$_Tree_node@U?$pair@QEAXPEAUSimulationResults@combat_model@@@std@@PEAX@std@@@2@QEAU?$_Tree_node@U?$pair@QEAXPEAUSimulationResults@combat_model@@@std@@PEAX@2@_K@Z
	?deallocate@?$allocator@D@std@@QEAAXQEAD_K@Z
	?deallocate@?$allocator@N@std@@QEAAXQEAN_K@Z
	?deallocate@?$allocator@U?$_Tree_node@U?$pair@QEAXPEAUSimulationResults@combat_model@@@std@@PEAX@std@@@std@@QEAAXQEAU?$_Tree_node@U?$pair@QEAXPEAUSimulationResults@combat_model@@@std@@PEAX@2@_K@Z
	?deallocate@?$allocator@UUnitType@combat_model@@@std@@QEAAXQEAUUnitType@combat_model@@_K@Z
	?deallocate@?$allocator@V?$basic_string@DU?$char_traits@D@std@@V?$allocator@D@2@@std@@@std@@QEAAXQEAV?$basic_string@DU?$char_traits@D@std@@V?$allocator@D@2@@2@_K@Z
	?deallocate@?$allocator@V?$vector@NV?$allocator@N@std@@@std@@@std@@QEAAXQEAV?$vector@NV?$allocator@N@std@@@2@_K@Z
	?end@?$_Tree@V?$_Tmap_traits@PEAXPEAUSimulationResults@combat_model@@U?$less@PEAX@std@@V?$allocator@U?$pair@QEAXPEAUSimulationResults@combat_model@@@std@@@4@$0A@@std@@@std@@QEAA?AV?$_Tree_iterator@V?$_Tree_val@U?$_Tree_simple_types@U?$pair@QEAXPEAUSimulationResults@combat_model@@@std@@@std@@@std@@@2@XZ
	?end@?$vector@NV?$allocator@N@std@@@std@@QEAA?AV?$_Vector_iterator@V?$_Vector_val@U?$_Simple_types@N@std@@@std@@@2@XZ
	?eof@?$_Narrow_char_traits@DH@std@@SAHXZ
	?eq_int_type@?$_Narrow_char_traits@DH@std@@SA_NHH@Z
	?erase@?$basic_string@DU?$char_traits@D@std@@V?$allocator@D@2@@std@@QEAAAEAV12@_K0@Z
	?explicit_rk2_step@IMEXSolver@combat_model@@AEBA?AV?$vector@NV?$allocator@N@std@@@std@@AEBV34@N@Z
	?export_results_to_csv@FileIO@combat_model@@SA_NAEBUSimulationResults@2@AEBV?$basic_string@DU?$char_traits@D@std@@V?$allocator@D@2@@std@@AEBV?$vector@V?$basic_string@DU?$char_traits@D@std@@V?$allocator@D@2@@std@@V?$allocator@V?$basic_string@DU?$char_traits@D@std@@V?$allocator@D@2@@std@@@2@@5@2@Z
	?extract_state@IMEXSolver@combat_model@@AEBAXAEBV?$vector@NV?$allocator@N@std@@@std@@AEAV34@11111@Z
	?find@?$_Tree@V?$_Tmap_traits@PEAXPEAUSimulationResults@combat_model@@U?$less@PEAX@std@@V?$allocator@U?$pair@QEAXPEAUSimulationResults@combat_model@@@std@@@4@$0A@@std@@@std@@QEAA?AV?$_Tree_iterator@V?$_Tree_val@U?$_Tree_simple_types@U?$pair@QEAXPEAUSimulationResults@combat_model@@@std@@@std@@@std@@@2@AEBQEAX@Z
	?front@?$basic_string@DU?$char_traits@D@std@@V?$allocator@D@2@@std@@QEAAAEADXZ
	?imbue@?$basic_filebuf@DU?$char_traits@D@std@@@std@@MEAAXAEBVlocale@2@@Z
	?implicit_cn_step@IMEXSolver@combat_model@@AEBA?AV?$vector@NV?$allocator@N@std@@@std@@AEBV34@0NAEAH1@Z
	?is_open@?$basic_filebuf@DU?$char_traits@D@std@@@std@@QEBA_NXZ
	?is_open@?$basic_ofstream@DU?$char_traits@D@std@@@std@@QEBA_NXZ
	?length@?$_Narrow_char_traits@DH@std@@SA_KQEBD@Z
	?max_size@?$_Default_allocator_traits@V?$allocator@D@std@@@std@@SA_KAEBV?$allocator@D@2@@Z
	?max_size@?$_Default_allocator_traits@V?$allocator@N@std@@@std@@SA_KAEBV?$allocator@N@2@@Z
	?max_size@?$_Default_allocator_traits@V?$allocator@U?$_Tree_node@U?$pair@QEAXPEAUSimulationResults@combat_model@@@std@@PEAX@std@@@std@@@std@@SA_KAEBV?$allocator@U?$_Tree_node@U?$pair@QEAXPEAUSimulationResults@combat_model@@@std@@PEAX@std@@@2@@Z
	?max_size@?$_Default_allocator_traits@V?$allocator@UUnitType@combat_model@@@std@@@std@@SA_KAEBV?$allocator@UUnitType@combat_model@@@2@@Z
	?max_size@?$_Default_allocator_traits@V?$allocator@V?$basic_string@DU?$char_traits@D@std@@V?$allocator@D@2@@std@@@std@@@std@@SA_KAEBV?$allocator@V?$basic_string@DU?$char_traits@D@std@@V?$allocator@D@2@@std@@@2@@Z
	?max_size@?$_Default_allocator_traits@V?$allocator@V?$vector@NV?$allocator@N@std@@@std@@@std@@@std@@SA_KAEBV?$allocator@V?$vector@NV?$allocator@N@std@@@std@@@2@@Z
	?max_size@?$_Tree@V?$_Tmap_traits@PEAXPEAUSimulationResults@combat_model@@U?$less@PEAX@std@@V?$allocator@U?$pair@QEAXPEAUSimulationResults@combat_model@@@std@@@4@$0A@@std@@@std@@QEBA_KXZ
	?max_size@?$basic_string@DU?$char_traits@D@std@@V?$allocator@D@2@@std@@QEBA_KXZ
	?max_size@?$vector@NV?$allocator@N@std@@@std@@QEBA_KXZ
	?max_size@?$vector@UUnitType@combat_model@@V?$allocator@UUnitType@combat_model@@@std@@@std@@QEBA_KXZ
	?max_size@?$vector@V?$basic_string@DU?$char_traits@D@std@@V?$allocator@D@2@@std@@V?$allocator@V?$basic_string@DU?$char_traits@D@std@@V?$allocator@D@2@@std@@@2@@std@@QEBA_KXZ
	?max_size@?$vector@V?$vector@NV?$allocator@N@std@@@std@@V?$allocator@V?$vector@NV?$allocator@N@std@@@std@@@2@@std@@QEBA_KXZ
	?move@?$_Char_traits@DH@std@@SAPEADQEADQEBD_K@Z
	?not_eof@?$_Narrow_char_traits@DH@std@@SAHH@Z
	?now@steady_clock@chrono@std@@SA?AV?$time_point@Usteady_clock@chrono@std@@V?$duration@_JU?$ratio@$00$0DLJKMKAA@@std@@@23@@23@XZ
	?open@?$basic_filebuf@DU?$char_traits@D@std@@@std@@QEAAPEAV12@PEBDHH@Z
	?overflow@?$basic_filebuf@DU?$char_traits@D@std@@@std@@MEAAHH@Z
	?pbackfail@?$basic_filebuf@DU?$char_traits@D@std@@@std@@MEAAHH@Z
	?pointer_to@?$pointer_traits@PEAU?$pair@QEAXPEAUSimulationResults@combat_model@@@std@@@std@@SAPEAU?$pair@QEAXPEAUSimulationResults@combat_model@@@2@AEAU32@@Z
	?project_to_feasible@IMEXSolver@combat_model@@AEBAXAEAV?$vector@NV?$allocator@N@std@@@std@@@Z
	?push_back@?$basic_string@DU?$char_traits@D@std@@V?$allocator@D@2@@std@@QEAAXD@Z
	?push_back@?$vector@V?$basic_string@DU?$char_traits@D@std@@V?$allocator@D@2@@std@@V?$allocator@V?$basic_string@DU?$char_traits@D@std@@V?$allocator@D@2@@std@@@2@@std@@QEAAX$$QEAV?$basic_string@DU?$char_traits@D@std@@V?$allocator@D@2@@2@@Z
	?release@?$unique_ptr@V_Facet_base@std@@U?$default_delete@V_Facet_base@std@@@2@@std@@QEAAPEAV_Facet_base@2@XZ
	?resize@?$vector@NV?$allocator@N@std@@@std@@QEAAX_K@Z
	?resize@?$vector@NV?$allocator@N@std@@@std@@QEAAX_KAEBN@Z
	?resize@?$vector@UUnitType@combat_model@@V?$allocator@UUnitType@combat_model@@@std@@@std@@QEAAX_K@Z
	?resize@?$vector@V?$vector@NV?$allocator@N@std@@@std@@V?$allocator@V?$vector@NV?$allocator@N@std@@@std@@@2@@std@@QEAAX_KAEBV?$vector@NV?$allocator@N@std@@@2@@Z
	?rhs_split@IMEXSolver@combat_model@@AEBAXAEBV?$vector@NV?$allocator@N@std@@@std@@AEAV34@1AEAN2@Z
	?seekoff@?$basic_filebuf@DU?$char_traits@D@std@@@std@@MEAA?AV?$fpos@U_Mbstatet@@@2@_JHH@Z
	?seekpos@?$basic_filebuf@DU?$char_traits@D@std@@@std@@MEAA?AV?$fpos@U_Mbstatet@@@2@V32@H@Z
	?select_on_container_copy_construction@?$_Default_allocator_traits@V?$allocator@D@std@@@std@@SA?AV?$allocator@D@2@AEBV32@@Z
	?select_on_container_copy_construction@?$_Default_allocator_traits@V?$allocator@N@std@@@std@@SA?AV?$allocator@N@2@AEBV32@@Z
	?select_on_container_copy_construction@?$_Default_allocator_traits@V?$allocator@UUnitType@combat_model@@@std@@@std@@SA?AV?$allocator@UUnitType@combat_model@@@2@AEBV32@@Z
	?select_on_container_copy_construction@?$_Default_allocator_traits@V?$allocator@V?$vector@NV?$allocator@N@std@@@std@@@std@@@std@@SA?AV?$allocator@V?$vector@NV?$allocator@N@std@@@std@@@2@AEBV32@@Z
	?set_identity@Matrix@combat_model@@QEAAXXZ
	?setbuf@?$basic_filebuf@DU?$char_traits@D@std@@@std@@MEAAPEAV?$basic_streambuf@DU?$char_traits@D@std@@@2@PEAD_J@Z
	?size@?$basic_string@DU?$char_traits@D@std@@V?$allocator@D@2@@std@@QEBA_KXZ
	?size@?$vector@NV?$allocator@N@std@@@std@@QEBA_KXZ
	?size@?$vector@UUnitType@combat_model@@V?$allocator@UUnitType@combat_model@@@std@@@std@@QEBA_KXZ
	?size@?$vector@V?$vector@NV?$allocator@N@std@@@std@@V?$allocator@V?$vector@NV?$allocator@N@std@@@std@@@2@@std@@QEBA_KXZ
	?solve@IMEXSolver@combat_model@@QEAA?AUSimulationResults@2@XZ
	?solve_linear_system@Matrix@combat_model@@SA?AV?$vector@NV?$allocator@N@std@@@std@@V12@V34@@Z
	?state@?$fpos@U_Mbstatet@@@std@@QEBA?AU_Mbstatet@@XZ
	?sync@?$basic_filebuf@DU?$char_traits@D@std@@@std@@MEAAHXZ
	?time_since_epoch@?$time_point@Usteady_clock@chrono@std@@V?$duration@_JU?$ratio@$00$0DLJKMKAA@@std@@@23@@chrono@std@@QEBA?AV?$duration@_JU?$ratio@$00$0DLJKMKAA@@std@@@23@XZ
	?to_char_type@?$_Narrow_char_traits@DH@std@@SADH@Z
	?to_int_type@?$_Narrow_char_traits@DH@std@@SAHD@Z
	?uflow@?$basic_filebuf@DU?$char_traits@D@std@@@std@@MEAAHXZ
	?underflow@?$basic_filebuf@DU?$char_traits@D@std@@@std@@MEAAHXZ
	?what@exception@std@@UEBAPEBDXZ
	?xsgetn@?$basic_filebuf@DU?$char_traits@D@std@@@std@@MEAA_JPEAD_J@Z
	?xsputn@?$basic_filebuf@DU?$char_traits@D@std@@@std@@MEAA_JPEBD_J@Z
	results_destroy
	results_export_to_csv
	results_get_a_attack
	results_get_a_count
	results_get_a_exposure
	results_get_a_morale
	results_get_a_supply
	results_get_avg_newton_iterations
	results_get_b_attack
	results_get_b_count
	results_get_b_exposure
	results_get_b_morale
	results_get_b_supply
	results_get_convergence_failures
	results_get_execution_time_ms
	results_get_final_force_a
	results_get_final_force_b
	results_get_initial_force_a
	results_get_initial_force_b
	results_get_max_newton_iterations
	results_get_time
	results_get_time_count
	results_get_total_iterations
	results_get_type_count_a
	results_get_type_count_b
	results_get_uav_activity_a
	results_get_uav_activity_b
	results_get_winner
	run_simulation
